

Microchip Technology PIC18 LITE Macro Assembler V1.30 build 55553 
                                                                                               Thu Aug 07 10:48:00 2014

Microchip Technology Omniscient Code Generator (Lite mode) build 55553
     1                           	processor	18F45K80
     2                           	fnconf	rparam,??,?,0
     3                           	opt	pw 120
     4                           	opt	lm
     5                           	psect	intcodelo,global,reloc=2,class=CODE,delta=1
     6                           	psect	cinit,global,reloc=2,class=CODE,delta=1
     7                           	psect	bssCOMRAM,global,class=COMRAM,space=1,delta=1
     8                           	psect	bssBANK0,global,class=BANK0,space=1,delta=1
     9                           	psect	bssBANK1,global,class=BANK1,space=1,delta=1
    10                           	psect	bssBANK2,global,class=BANK2,space=1,delta=1
    11                           	psect	cstackBANK0,global,class=BANK0,space=1,delta=1
    12                           	psect	cstackCOMRAM,global,class=COMRAM,space=1,delta=1
    13                           	psect	text0,global,reloc=2,class=CODE,delta=1
    14                           	psect	text1,global,reloc=2,class=CODE,delta=1
    15                           	psect	text2,global,reloc=2,class=CODE,delta=1
    16                           	psect	text3,global,reloc=2,class=CODE,delta=1
    17                           	psect	text4,global,reloc=2,class=CODE,delta=1
    18                           	psect	text5,global,reloc=2,class=CODE,delta=1
    19                           	psect	text6,global,reloc=2,class=CODE,delta=1
    20                           	psect	text7,global,reloc=2,class=CODE,delta=1
    21                           	psect	text8,global,reloc=2,class=CODE,delta=1
    22                           	psect	text9,global,reloc=2,class=CODE,delta=1
    23                           	psect	text10,global,reloc=2,class=CODE,delta=1
    24                           	psect	text11,global,reloc=2,class=CODE,delta=1
    25                           	psect	text12,global,reloc=2,class=CODE,delta=1
    26                           	psect	text13,global,reloc=2,class=CODE,delta=1
    27                           	psect	text14,global,reloc=2,class=CODE,delta=1
    28                           	psect	text15,global,reloc=2,class=CODE,delta=1
    29                           	psect	text16,global,reloc=2,class=CODE,delta=1
    30                           	psect	text17,global,reloc=2,class=CODE,delta=1
    31                           	psect	intcode,global,reloc=2,class=CODE,delta=1
    32                           	psect	intcode_body,global,reloc=2,class=CODE,delta=1
    33                           	psect	text20,global,reloc=2,class=CODE,delta=1
    34                           	psect	text21,global,reloc=2,class=CODE,delta=1
    35                           	psect	text22,global,reloc=2,class=CODE,delta=1
    36                           	psect	intsave_regs,global,class=BIGRAM,space=1,delta=1
    37                           	psect	rparam,global,class=COMRAM,space=1,delta=1
    38  0000                     _ANCON0	set	3933
    39  0000                     _ANCON1	set	3932
    40  0000                     _BRGCON1	set	3651
    41  0000                     _BRGCON2	set	3652
    42  0000                     _BRGCON3	set	3653
    43  0000                     _CANCON	set	3951
    44  0000                     _CANSTAT	set	3950
    45  0000                     _CCP2CON	set	3920
    46  0000                     _CCP3CON	set	3917
    47  0000                     _CCP4CON	set	3914
    48  0000                     _CCP5CON	set	3911
    49  0000                     _CCPR1L	set	4028
    50  0000                     _CCPR2L	set	3921
    51  0000                     _CCPR5L	set	3912
    52  0000                     _CCPTMRS	set	3993
    53  0000                     _CIOCON	set	3952
    54  0000                     _ECCP1CONbits	set	4027
    55  0000                     _INTCON	set	4082
    56  0000                     _INTCON2	set	4081
    57  0000                     _INTCON3	set	4080
    58  0000                     _INTCONbits	set	4082
    59  0000                     _IPR1	set	3999
    60  0000                     _IPR2	set	4002
    61  0000                     _IPR3	set	4005
    62  0000                     _IPR4	set	4024
    63  0000                     _IPR5	set	3960
    64  0000                     _LATBbits	set	3978
    65  0000                     _LATCbits	set	3979
    66  0000                     _LATD	set	3980
    67  0000                     _LATE	set	3981
    68  0000                     _OSCCONbits	set	4051
    69  0000                     _PIE1	set	3997
    70  0000                     _PIE2	set	4000
    71  0000                     _PIE3	set	4003
    72  0000                     _PIE4	set	4022
    73  0000                     _PIE5	set	3958
    74  0000                     _PIR1	set	3998
    75  0000                     _PIR2	set	4001
    76  0000                     _PIR3	set	4004
    77  0000                     _PIR4	set	4023
    78  0000                     _PIR5	set	3959
    79  0000                     _PIR5bits	set	3959
    80  0000                     _PORTA	set	3968
    81  0000                     _PR2	set	4043
    82  0000                     _PR4	set	4009
    83  0000                     _RCONbits	set	4048
    84  0000                     _RXF0SIDH	set	3808
    85  0000                     _RXF0SIDL	set	3809
    86  0000                     _RXF1SIDH	set	3812
    87  0000                     _RXF1SIDL	set	3813
    88  0000                     _RXF2SIDH	set	3816
    89  0000                     _RXF2SIDL	set	3817
    90  0000                     _RXF3SIDH	set	3820
    91  0000                     _RXF3SIDL	set	3821
    92  0000                     _RXF4SIDH	set	3824
    93  0000                     _RXF4SIDL	set	3825
    94  0000                     _RXF5SIDH	set	3828
    95  0000                     _RXF5SIDL	set	3829
    96  0000                     _RXM0SIDH	set	3832
    97  0000                     _RXM0SIDL	set	3833
    98  0000                     _RXM1SIDH	set	3836
    99  0000                     _RXM1SIDL	set	3837
   100  0000                     _T0CONbits	set	4053
   101  0000                     _T2CONbits	set	4042
   102  0000                     _T4CONbits	set	3976
   103  0000                     _TMR0H	set	4055
   104  0000                     _TMR0L	set	4054
   105  0000                     _TRISA	set	3986
   106  0000                     _TRISB	set	3987
   107  0000                     _TRISC	set	3988
   108  0000                     _TRISD	set	3989
   109  0000                     _TRISE	set	3990
   110  0000                     _TXB0CONbits	set	3872
   111                           
   112 ;; *************** function _low_isr *****************
   113 ;; Defined at:
   114 ;;		line 73 in file "interrupts.c"
   115 ;; Parameters:    Size  Location     Type
   116 ;;		None
   117 ;; Auto vars:     Size  Location     Type
   118 ;;		None
   119 ;; Return value:  Size  Location     Type
   120 ;;		None               void
   121 ;; Registers used:
   122 ;;		wreg, status,2, status,0
   123 ;; Tracked objects:
   124 ;;		On entry : 0/0
   125 ;;		On exit  : 0/0
   126 ;;		Unchanged: 0/0
   127 ;; Data sizes:     COMRAM   BANK0   BANK1   BANK2   BANK3   BANK4   BANK5   BANK6   BANK7   BANK8   BANK9  BANK10  BANK1
      +1  BANK12  BANK13  BANK14
   128 ;;      Params:         0       0       0       0       0       0       0       0       0       0       0       0       
      +0       0       0       0
   129 ;;      Locals:         0       0       0       0       0       0       0       0       0       0       0       0       
      +0       0       0       0
   130 ;;      Temps:         18       0       0       0       0       0       0       0       0       0       0       0       
      +0       0       0       0
   131 ;;      Totals:        18       0       0       0       0       0       0       0       0       0       0       0       
      +0       0       0       0
   132 ;;Total ram usage:       18 bytes
   133 ;; Hardware stack levels used:    1
   134 ;; Hardware stack levels required when called:    3
   135 ;; This function calls:
   136 ;;		Nothing
   137 ;; This function is called by:
   138 ;;		Interrupt level 1
   139 ;; This function uses a non-reentrant model
   140 ;;
   141                           
   142                           	psect	intcodelo
   143  000018                     __pintcodelo:
   144                           	opt stack 0
   145  0000                     _TXB2CON	set	3840
   146  0000                     _TXB1CON	set	3856
   147  0000                     _TXB0CON	set	3872
   148  0000                     _RXB1CON	set	3888
   149  0000                     _RXB0CON	set	3936
   150  0000                     _RXM1EXIDEN	set	30699
   151  0000                     _RXM0EXIDM	set	30667
   152  0000                     _RXB1OVFL	set	31630
   153  0000                     _RXB1IF	set	31673
   154  0000                     _RXB1FUL	set	31111
   155  0000                     _RXB0OVFL	set	31631
   156  0000                     _RXB0IF	set	31672
   157  0000                     _RXB0FUL	set	31495
   158  0000                     _RXB0FILHIT0	set	31488
   159  0000                     _MDSEL1	set	31639
   160  0000                     _MDSEL0	set	31638
   161  0000                     _IRXIF	set	31679
   162  0000                     
   163                           ; #config settings
   164  000018                     _low_isr:
   165                           	opt stack 25
   166                           
   167                           ; BSR set to: 0
   168                           ;incstack = 0
   169  000018  CFD8 F002          	movff	status,??_low_isr+1
   170  00001C  CFE8 F003          	movff	wreg,??_low_isr+2
   171  000020  CFE0 F004          	movff	bsr,??_low_isr+3
   172  000024  CFFA F005          	movff	pclath,??_low_isr+4
   173  000028  CFFB F006          	movff	pclatu,??_low_isr+5
   174  00002C  CFE9 F007          	movff	fsr0l,??_low_isr+6
   175  000030  CFEA F008          	movff	fsr0h,??_low_isr+7
   176  000034  CFE1 F009          	movff	fsr1l,??_low_isr+8
   177  000038  CFE2 F00A          	movff	fsr1h,??_low_isr+9
   178  00003C  CFD9 F00B          	movff	fsr2l,??_low_isr+10
   179  000040  CFDA F00C          	movff	fsr2h,??_low_isr+11
   180  000044  CFF3 F00D          	movff	prodl,??_low_isr+12
   181  000048  CFF4 F00E          	movff	prodh,??_low_isr+13
   182  00004C  CFF6 F00F          	movff	tblptrl,??_low_isr+14
   183  000050  CFF7 F010          	movff	tblptrh,??_low_isr+15
   184  000054  CFF8 F011          	movff	tblptru,??_low_isr+16
   185  000058  CFF5 F012          	movff	tablat,??_low_isr+17
   186                           
   187                           ;interrupts.c: 84: if(INTCONbits.TMR0IF)
   188  00005C  A4F2               	btfss	intcon,2,c	;volatile
   189  00005E  D03E               	goto	i1l33
   190                           
   191                           ;interrupts.c: 85: {
   192                           ;interrupts.c: 86: INTCONbits.TMR0IF=0;
   193  000060  94F2               	bcf	intcon,2,c	;volatile
   194                           
   195                           ;interrupts.c: 88: SoundTimerTicked=1;
   196  000062  6E01               	movwf	??_low_isr& (0+255),c
   197  000064  0E01               	movlw	1
   198  000066  6E48               	movwf	_SoundTimerTicked,c
   199  000068  5001               	movf	??_low_isr& (0+255),w,c
   200                           
   201                           ;interrupts.c: 89: KeybMsg.KeybTimerTicked=1;
   202  00006A  6E01               	movwf	??_low_isr& (0+255),c
   203  00006C  0E01               	movlw	1
   204  00006E  6E3F               	movwf	_KeybMsg+6,c
   205  000070  5001               	movf	??_low_isr& (0+255),w,c
   206                           
   207                           ;interrupts.c: 93: if(SoundMsg.SoundType==1)
   208  000072  0100               	movlb	0	; () banked
   209  000074  0100               	movlb	0	; () banked
   210  000076  05BE               	decf	_SoundMsg& (0+255),w,b
   211  000078  A4D8               	btfss	status,2,c
   212  00007A  D003               	goto	i1l1606
   213                           
   214                           ; BSR set to: 0
   215                           ;interrupts.c: 94: {
   216                           ;interrupts.c: 95: SoundMsg.OnTimeIndex++;
   217  00007C  0100               	movlb	0	; () banked
   218  00007E  0100               	movlb	0	; () banked
   219  000080  2BC7               	incf	(_SoundMsg+9)& (0+255),f,b
   220  000082                     i1l1606:
   221                           
   222                           ; BSR set to: 0
   223                           ;interrupts.c: 96: }
   224                           ;interrupts.c: 98: if(SoundMsg.SoundType==2 && SoundMsg.CurrentPhase==1)
   225  000082  0100               	movlb	0	; () banked
   226  000084  0100               	movlb	0	; () banked
   227  000086  51BE               	movf	_SoundMsg& (0+255),w,b
   228  000088  0A02               	xorlw	2
   229  00008A  A4D8               	btfss	status,2,c
   230  00008C  D008               	goto	i1l1612
   231                           
   232                           ; BSR set to: 0
   233  00008E  0100               	movlb	0	; () banked
   234  000090  0100               	movlb	0	; () banked
   235  000092  05C2               	decf	(_SoundMsg+4)& (0+255),w,b
   236  000094  A4D8               	btfss	status,2,c
   237  000096  D003               	goto	i1l1612
   238                           
   239                           ; BSR set to: 0
   240                           ;interrupts.c: 99: {
   241                           ;interrupts.c: 100: SoundMsg.OnTimeIndex++;
   242  000098  0100               	movlb	0	; () banked
   243  00009A  0100               	movlb	0	; () banked
   244  00009C  2BC7               	incf	(_SoundMsg+9)& (0+255),f,b
   245  00009E                     i1l1612:
   246                           
   247                           ; BSR set to: 0
   248                           ;interrupts.c: 101: }
   249                           ;interrupts.c: 103: if(SoundMsg.SoundType==2 && SoundMsg.CurrentPhase==2)
   250  00009E  0100               	movlb	0	; () banked
   251  0000A0  0100               	movlb	0	; () banked
   252  0000A2  51BE               	movf	_SoundMsg& (0+255),w,b
   253  0000A4  0A02               	xorlw	2
   254  0000A6  A4D8               	btfss	status,2,c
   255  0000A8  D009               	goto	i1l1618
   256                           
   257                           ; BSR set to: 0
   258  0000AA  0100               	movlb	0	; () banked
   259  0000AC  0100               	movlb	0	; () banked
   260  0000AE  51C2               	movf	(_SoundMsg+4)& (0+255),w,b
   261  0000B0  0A02               	xorlw	2
   262  0000B2  A4D8               	btfss	status,2,c
   263  0000B4  D003               	goto	i1l1618
   264                           
   265                           ; BSR set to: 0
   266                           ;interrupts.c: 104: {
   267                           ;interrupts.c: 105: SoundMsg.OffTimeIndex++;
   268  0000B6  0100               	movlb	0	; () banked
   269  0000B8  0100               	movlb	0	; () banked
   270  0000BA  2BC8               	incf	(_SoundMsg+10)& (0+255),f,b
   271  0000BC                     i1l1618:
   272                           
   273                           ; BSR set to: 0
   274                           ;interrupts.c: 106: }
   275                           ;interrupts.c: 110: if( KeybMsg.KeybCode!=0x00 && !KeybMsg.LongPressDetected)
   276  0000BC  5039               	movf	_KeybMsg,w,c
   277  0000BE  B4D8               	btfsc	status,2,c
   278  0000C0  D003               	goto	i1l1624
   279                           
   280                           ; BSR set to: 0
   281  0000C2  663C               	tstfsz	_KeybMsg+3,c
   282  0000C4  D001               	goto	i1l1624
   283                           
   284                           ; BSR set to: 0
   285                           ;interrupts.c: 111: {
   286                           ;interrupts.c: 112: KeybMsg.LongPressIndex++;
   287  0000C6  2A3E               	incf	_KeybMsg+5,f,c
   288  0000C8                     i1l1624:
   289                           
   290                           ; BSR set to: 0
   291                           ;interrupts.c: 113: }
   292                           ;interrupts.c: 115: if( KeybMsg.KeybCode!=0x00 && KeybMsg.LongPressDetected)
   293  0000C8  5039               	movf	_KeybMsg,w,c
   294  0000CA  B4D8               	btfsc	status,2,c
   295  0000CC  D003               	goto	i1l1630
   296                           
   297                           ; BSR set to: 0
   298  0000CE  503C               	movf	_KeybMsg+3,w,c
   299  0000D0  A4D8               	btfss	status,2,c
   300                           
   301                           ; BSR set to: 0
   302                           ;interrupts.c: 116: {
   303                           ;interrupts.c: 117: KeybMsg.FirePressIndex++;
   304  0000D2  2A3D               	incf	_KeybMsg+4,f,c
   305  0000D4                     i1l1630:
   306                           
   307                           ; BSR set to: 0
   308                           ;interrupts.c: 118: }
   309                           ;interrupts.c: 120: TMR0H = 0xFB;
   310  0000D4  0EFB               	movlw	251
   311  0000D6  6ED7               	movwf	4055,c	;volatile
   312                           
   313                           ; BSR set to: 0
   314                           ;interrupts.c: 121: TMR0L = 0x1E;
   315  0000D8  0E1E               	movlw	30
   316  0000DA  6ED6               	movwf	4054,c	;volatile
   317  0000DC                     i1l33:
   318  0000DC  C012  FFF5         	movff	??_low_isr+17,tablat
   319  0000E0  C011  FFF8         	movff	??_low_isr+16,tblptru
   320  0000E4  C010  FFF7         	movff	??_low_isr+15,tblptrh
   321  0000E8  C00F  FFF6         	movff	??_low_isr+14,tblptrl
   322  0000EC  C00E  FFF4         	movff	??_low_isr+13,prodh
   323  0000F0  C00D  FFF3         	movff	??_low_isr+12,prodl
   324  0000F4  C00C  FFDA         	movff	??_low_isr+11,fsr2h
   325  0000F8  C00B  FFD9         	movff	??_low_isr+10,fsr2l
   326  0000FC  C00A  FFE2         	movff	??_low_isr+9,fsr1h
   327  000100  C009  FFE1         	movff	??_low_isr+8,fsr1l
   328  000104  C008  FFEA         	movff	??_low_isr+7,fsr0h
   329  000108  C007  FFE9         	movff	??_low_isr+6,fsr0l
   330  00010C  C006  FFFB         	movff	??_low_isr+5,pclatu
   331  000110  C005  FFFA         	movff	??_low_isr+4,pclath
   332  000114  C004  FFE0         	movff	??_low_isr+3,bsr
   333  000118  C003  FFE8         	movff	??_low_isr+2,wreg
   334  00011C  C002  FFD8         	movff	??_low_isr+1,status
   335  000120  0010               	retfie	
   336  000122                     __end_of_low_isr:
   337                           	opt stack 0
   338                           pclatu	equ	0xFFB
   339                           pclath	equ	0xFFA
   340                           tblptru	equ	0xFF8
   341                           tblptrh	equ	0xFF7
   342                           tblptrl	equ	0xFF6
   343                           tablat	equ	0xFF5
   344                           prodh	equ	0xFF4
   345                           prodl	equ	0xFF3
   346                           intcon	equ	0xFF2
   347                           fsr0h	equ	0xFEA
   348                           fsr0l	equ	0xFE9
   349                           wreg	equ	0xFE8
   350                           fsr1h	equ	0xFE2
   351                           fsr1l	equ	0xFE1
   352                           bsr	equ	0xFE0
   353                           fsr2h	equ	0xFDA
   354                           fsr2l	equ	0xFD9
   355                           status	equ	0xFD8
   356                           
   357                           	psect	cinit
   358  001220                     __pcinit:
   359                           	opt stack 0
   360  001220                     start_initialization:
   361                           	opt stack 0
   362  001220                     __initialization:
   363                           	opt stack 0
   364                           
   365                           ; Clear objects allocated to BANK2 (144 bytes)
   366  001220  EE02  F000         	lfsr	0,__pbssBANK2
   367  001224  0E90               	movlw	144
   368  001226                     clear_0:
   369  001226  6AEE               	clrf	postinc0,c
   370  001228  06E8               	decf	wreg,f,c
   371  00122A  E1FD               	bnz	clear_0
   372                           
   373                           ; Clear objects allocated to BANK1 (144 bytes)
   374  00122C  EE01  F000         	lfsr	0,__pbssBANK1
   375  001230  0E90               	movlw	144
   376  001232                     clear_1:
   377  001232  6AEE               	clrf	postinc0,c
   378  001234  06E8               	decf	wreg,f,c
   379  001236  E1FD               	bnz	clear_1
   380                           
   381                           ; Clear objects allocated to BANK0 (12 bytes)
   382  001238  EE00  F0BE         	lfsr	0,__pbssBANK0
   383  00123C  0E0C               	movlw	12
   384  00123E                     clear_2:
   385  00123E  6AEE               	clrf	postinc0,c
   386  001240  06E8               	decf	wreg,f,c
   387  001242  E1FD               	bnz	clear_2
   388                           
   389                           ; Clear objects allocated to COMRAM (17 bytes)
   390  001244  EE00  F039         	lfsr	0,__pbssCOMRAM
   391  001248  0E11               	movlw	17
   392  00124A                     clear_3:
   393  00124A  6AEE               	clrf	postinc0,c
   394  00124C  06E8               	decf	wreg,f,c
   395  00124E  E1FD               	bnz	clear_3
   396  001250                     end_of_initialization:
   397                           	opt stack 0
   398  001250                     __end_of__initialization:
   399                           	opt stack 0
   400  001250  0100               	movlb	0
   401  001252  EF93  F000         	goto	_main	;jump to C main() function
   402                           pclatu	equ	0xFFB
   403                           pclath	equ	0xFFA
   404                           tblptru	equ	0xFF8
   405                           tblptrh	equ	0xFF7
   406                           tblptrl	equ	0xFF6
   407                           tablat	equ	0xFF5
   408                           prodh	equ	0xFF4
   409                           prodl	equ	0xFF3
   410                           intcon	equ	0xFF2
   411                           postinc0	equ	0xFEE
   412                           fsr0h	equ	0xFEA
   413                           fsr0l	equ	0xFE9
   414                           wreg	equ	0xFE8
   415                           fsr1h	equ	0xFE2
   416                           fsr1l	equ	0xFE1
   417                           bsr	equ	0xFE0
   418                           fsr2h	equ	0xFDA
   419                           fsr2l	equ	0xFD9
   420                           status	equ	0xFD8
   421                           
   422                           	psect	bssCOMRAM
   423  000039                     __pbssCOMRAM:
   424                           	opt stack 0
   425  000039                     _KeybMsg:
   426                           	opt stack 0
   427  000039                     	ds	9
   428  000042                     _LedDisp:
   429                           	opt stack 0
   430  000042                     	ds	3
   431  000045                     _TickCounter:
   432                           	opt stack 0
   433  000045                     	ds	3
   434  000048                     _SoundTimerTicked:
   435                           	opt stack 0
   436  000048                     	ds	1
   437  000049                     __ECANRxFilterHitInfo:
   438                           	opt stack 0
   439  000049                     	ds	1
   440                           pclatu	equ	0xFFB
   441                           pclath	equ	0xFFA
   442                           tblptru	equ	0xFF8
   443                           tblptrh	equ	0xFF7
   444                           tblptrl	equ	0xFF6
   445                           tablat	equ	0xFF5
   446                           prodh	equ	0xFF4
   447                           prodl	equ	0xFF3
   448                           intcon	equ	0xFF2
   449                           postinc0	equ	0xFEE
   450                           fsr0h	equ	0xFEA
   451                           fsr0l	equ	0xFE9
   452                           wreg	equ	0xFE8
   453                           fsr1h	equ	0xFE2
   454                           fsr1l	equ	0xFE1
   455                           bsr	equ	0xFE0
   456                           fsr2h	equ	0xFDA
   457                           fsr2l	equ	0xFD9
   458                           status	equ	0xFD8
   459                           
   460                           	psect	bssBANK0
   461  0000BE                     __pbssBANK0:
   462                           	opt stack 0
   463  0000BE                     _SoundMsg:
   464                           	opt stack 0
   465  0000BE                     	ds	11
   466  0000C9                     _LocalCanAdress:
   467                           	opt stack 0
   468  0000C9                     	ds	1
   469                           pclatu	equ	0xFFB
   470                           pclath	equ	0xFFA
   471                           tblptru	equ	0xFF8
   472                           tblptrh	equ	0xFF7
   473                           tblptrl	equ	0xFF6
   474                           tablat	equ	0xFF5
   475                           prodh	equ	0xFF4
   476                           prodl	equ	0xFF3
   477                           intcon	equ	0xFF2
   478                           postinc0	equ	0xFEE
   479                           fsr0h	equ	0xFEA
   480                           fsr0l	equ	0xFE9
   481                           wreg	equ	0xFE8
   482                           fsr1h	equ	0xFE2
   483                           fsr1l	equ	0xFE1
   484                           bsr	equ	0xFE0
   485                           fsr2h	equ	0xFDA
   486                           fsr2l	equ	0xFD9
   487                           status	equ	0xFD8
   488                           
   489                           	psect	bssBANK1
   490  000100                     __pbssBANK1:
   491                           	opt stack 0
   492  000100                     _CANTxFifo:
   493                           	opt stack 0
   494  000100                     	ds	144
   495                           pclatu	equ	0xFFB
   496                           pclath	equ	0xFFA
   497                           tblptru	equ	0xFF8
   498                           tblptrh	equ	0xFF7
   499                           tblptrl	equ	0xFF6
   500                           tablat	equ	0xFF5
   501                           prodh	equ	0xFF4
   502                           prodl	equ	0xFF3
   503                           intcon	equ	0xFF2
   504                           postinc0	equ	0xFEE
   505                           fsr0h	equ	0xFEA
   506                           fsr0l	equ	0xFE9
   507                           wreg	equ	0xFE8
   508                           fsr1h	equ	0xFE2
   509                           fsr1l	equ	0xFE1
   510                           bsr	equ	0xFE0
   511                           fsr2h	equ	0xFDA
   512                           fsr2l	equ	0xFD9
   513                           status	equ	0xFD8
   514                           
   515                           	psect	bssBANK2
   516  000200                     __pbssBANK2:
   517                           	opt stack 0
   518  000200                     _CANRxFifo:
   519                           	opt stack 0
   520  000200                     	ds	144
   521                           pclatu	equ	0xFFB
   522                           pclath	equ	0xFFA
   523                           tblptru	equ	0xFF8
   524                           tblptrh	equ	0xFF7
   525                           tblptrl	equ	0xFF6
   526                           tablat	equ	0xFF5
   527                           prodh	equ	0xFF4
   528                           prodl	equ	0xFF3
   529                           intcon	equ	0xFF2
   530                           postinc0	equ	0xFEE
   531                           fsr0h	equ	0xFEA
   532                           fsr0l	equ	0xFE9
   533                           wreg	equ	0xFE8
   534                           fsr1h	equ	0xFE2
   535                           fsr1l	equ	0xFE1
   536                           bsr	equ	0xFE0
   537                           fsr2h	equ	0xFDA
   538                           fsr2l	equ	0xFD9
   539                           status	equ	0xFD8
   540                           
   541                           	psect	cstackBANK0
   542  000060                     __pcstackBANK0:
   543                           	opt stack 0
   544  000060                     high_isr@CANRxNewMessage:
   545                           	opt stack 0
   546                           
   547                           ; 14 bytes @ 0x0
   548  000060                     	ds	14
   549  00006E                     ??_ECANFiltersInit:
   550  00006E                     ??_CANTxFifoInit:
   551  00006E                     ??_CANRxFifoInit:
   552  00006E                     ?_GetCANRxFifo:
   553                           	opt stack 0
   554  00006E                     ?_GetCANTxFifo:
   555                           	opt stack 0
   556  00006E                     ECANSetOperationMode@mode:
   557                           	opt stack 0
   558  00006E                     __CANIDToRegs@ptr:
   559                           	opt stack 0
   560  00006E                     PutCANTxFifo@PutMessage:
   561                           	opt stack 0
   562                           
   563                           ; 14 bytes @ 0xE
   564  00006E                     	ds	1
   565  00006F                     
   566                           ; 0 bytes @ 0xF
   567  00006F                     	ds	1
   568  000070                     ECANFiltersInit@mask:
   569                           	opt stack 0
   570  000070                     __CANIDToRegs@val:
   571                           	opt stack 0
   572                           
   573                           ; 4 bytes @ 0x10
   574  000070                     	ds	4
   575  000074                     __CANIDToRegs@type:
   576                           	opt stack 0
   577                           
   578                           ; 1 bytes @ 0x14
   579  000074                     	ds	1
   580  000075                     ??__CANIDToRegs:
   581                           
   582                           ; 0 bytes @ 0x15
   583  000075                     	ds	2
   584  000077                     __CANIDToRegs@Value:
   585                           	opt stack 0
   586                           
   587                           ; 2 bytes @ 0x17
   588  000077                     	ds	2
   589  000079                     ECANSendMessage@id:
   590                           	opt stack 0
   591                           
   592                           ; 4 bytes @ 0x19
   593  000079                     	ds	3
   594  00007C                     ??_GetCANRxFifo:
   595  00007C                     ??_PutCANTxFifo:
   596  00007C                     ??_GetCANTxFifo:
   597                           
   598                           ; 0 bytes @ 0x1C
   599  00007C                     	ds	1
   600  00007D                     ECANSendMessage@data:
   601                           	opt stack 0
   602                           
   603                           ; 2 bytes @ 0x1D
   604  00007D                     	ds	1
   605  00007E                     GetCANTxFifo@LocalCANTXMsg:
   606                           	opt stack 0
   607  00007E                     GetCANRxFifo@LocalCANRXMsg:
   608                           	opt stack 0
   609                           
   610                           ; 14 bytes @ 0x1E
   611  00007E                     	ds	1
   612  00007F                     ECANSendMessage@dataLen:
   613                           	opt stack 0
   614                           
   615                           ; 1 bytes @ 0x1F
   616  00007F                     	ds	1
   617  000080                     ECANSendMessage@msgFlags:
   618                           	opt stack 0
   619                           
   620                           ; 1 bytes @ 0x20
   621  000080                     	ds	1
   622  000081                     ??_ECANSendMessage:
   623                           
   624                           ; 0 bytes @ 0x21
   625  000081                     	ds	1
   626  000082                     ECANSendMessage@pb:
   627                           	opt stack 0
   628                           
   629                           ; 18 bytes @ 0x22
   630  000082                     	ds	18
   631  000094                     ECANSendMessage@j:
   632                           	opt stack 0
   633                           
   634                           ; 1 bytes @ 0x34
   635  000094                     	ds	1
   636  000095                     ECANSendMessage@tempPtr:
   637                           	opt stack 0
   638                           
   639                           ; 2 bytes @ 0x35
   640  000095                     	ds	2
   641  000097                     ECANSendMessage@temp:
   642                           	opt stack 0
   643                           
   644                           ; 1 bytes @ 0x37
   645  000097                     	ds	1
   646  000098                     ECANSendMessage@i:
   647                           	opt stack 0
   648                           
   649                           ; 1 bytes @ 0x38
   650  000098                     	ds	1
   651  000099                     ECANSendMessage@ptr:
   652                           	opt stack 0
   653                           
   654                           ; 2 bytes @ 0x39
   655  000099                     	ds	2
   656  00009B                     ??_main:
   657                           
   658                           ; 0 bytes @ 0x3B
   659  00009B                     	ds	6
   660  0000A1                     main@AutotestResult:
   661                           	opt stack 0
   662                           
   663                           ; 1 bytes @ 0x41
   664  0000A1                     	ds	1
   665  0000A2                     main@TempCANRxMsg:
   666                           	opt stack 0
   667                           
   668                           ; 14 bytes @ 0x42
   669  0000A2                     	ds	14
   670  0000B0                     main@TempCANTxMsg:
   671                           	opt stack 0
   672                           
   673                           ; 14 bytes @ 0x50
   674  0000B0                     	ds	14
   675                           pclatu	equ	0xFFB
   676                           pclath	equ	0xFFA
   677                           tblptru	equ	0xFF8
   678                           tblptrh	equ	0xFF7
   679                           tblptrl	equ	0xFF6
   680                           tablat	equ	0xFF5
   681                           prodh	equ	0xFF4
   682                           prodl	equ	0xFF3
   683                           intcon	equ	0xFF2
   684                           postinc0	equ	0xFEE
   685                           fsr0h	equ	0xFEA
   686                           fsr0l	equ	0xFE9
   687                           wreg	equ	0xFE8
   688                           fsr1h	equ	0xFE2
   689                           fsr1l	equ	0xFE1
   690                           bsr	equ	0xFE0
   691                           fsr2h	equ	0xFDA
   692                           fsr2l	equ	0xFD9
   693                           status	equ	0xFD8
   694                           
   695                           	psect	cstackCOMRAM
   696  000001                     __pcstackCOMRAM:
   697                           	opt stack 0
   698  000001                     ??_low_isr:
   699  000001                     
   700                           ; 1 bytes @ 0x0
   701  000001                     	ds	18
   702  000013                     __RegsToCANID@ptr:
   703                           	opt stack 0
   704  000013                     PutCANRxFifo@PutMessage:
   705                           	opt stack 0
   706                           
   707                           ; 14 bytes @ 0x12
   708  000013                     	ds	2
   709  000015                     __RegsToCANID@val:
   710                           	opt stack 0
   711                           
   712                           ; 2 bytes @ 0x14
   713  000015                     	ds	2
   714  000017                     __RegsToCANID@type:
   715                           	opt stack 0
   716                           
   717                           ; 1 bytes @ 0x16
   718  000017                     	ds	1
   719  000018                     ??__RegsToCANID:
   720                           
   721                           ; 0 bytes @ 0x17
   722  000018                     	ds	2
   723  00001A                     __RegsToCANID@Value:
   724                           	opt stack 0
   725                           
   726                           ; 2 bytes @ 0x19
   727  00001A                     	ds	2
   728  00001C                     ECANReceiveMessage@id:
   729                           	opt stack 0
   730                           
   731                           ; 2 bytes @ 0x1B
   732  00001C                     	ds	2
   733  00001E                     ECANReceiveMessage@data:
   734                           	opt stack 0
   735                           
   736                           ; 2 bytes @ 0x1D
   737  00001E                     	ds	2
   738  000020                     ECANReceiveMessage@dataLen:
   739                           	opt stack 0
   740                           
   741                           ; 2 bytes @ 0x1F
   742  000020                     	ds	1
   743  000021                     ??_PutCANRxFifo:
   744                           
   745                           ; 0 bytes @ 0x20
   746  000021                     	ds	1
   747  000022                     ECANReceiveMessage@msgFlags:
   748                           	opt stack 0
   749                           
   750                           ; 2 bytes @ 0x21
   751  000022                     	ds	2
   752  000024                     ??_ECANReceiveMessage:
   753                           
   754                           ; 0 bytes @ 0x23
   755  000024                     	ds	1
   756  000025                     ECANReceiveMessage@savedPtr:
   757                           	opt stack 0
   758                           
   759                           ; 2 bytes @ 0x24
   760  000025                     	ds	2
   761  000027                     ECANReceiveMessage@i:
   762                           	opt stack 0
   763                           
   764                           ; 1 bytes @ 0x26
   765  000027                     	ds	1
   766  000028                     ECANReceiveMessage@ptr:
   767                           	opt stack 0
   768                           
   769                           ; 2 bytes @ 0x27
   770  000028                     	ds	2
   771  00002A                     ECANReceiveMessage@temp:
   772                           	opt stack 0
   773                           
   774                           ; 1 bytes @ 0x29
   775  00002A                     	ds	1
   776  00002B                     ??_high_isr:
   777                           
   778                           ; 0 bytes @ 0x2A
   779  00002B                     	ds	14
   780                           pclatu	equ	0xFFB
   781                           pclath	equ	0xFFA
   782                           tblptru	equ	0xFF8
   783                           tblptrh	equ	0xFF7
   784                           tblptrl	equ	0xFF6
   785                           tablat	equ	0xFF5
   786                           prodh	equ	0xFF4
   787                           prodl	equ	0xFF3
   788                           intcon	equ	0xFF2
   789                           postinc0	equ	0xFEE
   790                           fsr0h	equ	0xFEA
   791                           fsr0l	equ	0xFE9
   792                           wreg	equ	0xFE8
   793                           fsr1h	equ	0xFE2
   794                           fsr1l	equ	0xFE1
   795                           bsr	equ	0xFE0
   796                           fsr2h	equ	0xFDA
   797                           fsr2l	equ	0xFD9
   798                           status	equ	0xFD8
   799                           
   800 ;;
   801 ;;Main: autosize = 0, tempsize = 6, incstack = 0, save=0
   802 ;;
   803 ;; *************** function _main *****************
   804 ;; Defined at:
   805 ;;		line 55 in file "main.c"
   806 ;; Parameters:    Size  Location     Type
   807 ;;		None
   808 ;; Auto vars:     Size  Location     Type
   809 ;;  TempCANTxMsg   14   80[BANK0 ] struct CANTxMsg
   810 ;;  TempCANRxMsg   14   66[BANK0 ] struct CANRxMsg
   811 ;;  TempVarInt      2    0        unsigned int 
   812 ;;  AutotestResu    1   65[BANK0 ] unsigned char 
   813 ;;  TempVar         1    0        unsigned char 
   814 ;; Return value:  Size  Location     Type
   815 ;;		None               void
   816 ;; Registers used:
   817 ;;		wreg, fsr0l, fsr0h, fsr1l, fsr1h, fsr1l, fsr1h, fsr2l, fsr2h, status,2, status,0, pclat, btemp, btemp+1, btemp+2, bt
      +emp+3, btemp+4, btemp+5, btemp+6, btemp+7, btemp+8, btemp+9, btemp+10, btemp+11, tosl, structret, tblptrl, tblptrh, tblp
      +tru, prodl, prodh, bsr, cstack
   818 ;; Tracked objects:
   819 ;;		On entry : 0/0
   820 ;;		On exit  : 0/0
   821 ;;		Unchanged: 0/0
   822 ;; Data sizes:     COMRAM   BANK0   BANK1   BANK2   BANK3   BANK4   BANK5   BANK6   BANK7   BANK8   BANK9  BANK10  BANK1
      +1  BANK12  BANK13  BANK14
   823 ;;      Params:         0       0       0       0       0       0       0       0       0       0       0       0       
      +0       0       0       0
   824 ;;      Locals:         0      29       0       0       0       0       0       0       0       0       0       0       
      +0       0       0       0
   825 ;;      Temps:          0       6       0       0       0       0       0       0       0       0       0       0       
      +0       0       0       0
   826 ;;      Totals:         0      35       0       0       0       0       0       0       0       0       0       0       
      +0       0       0       0
   827 ;;Total ram usage:       35 bytes
   828 ;; Hardware stack levels required when called:    6
   829 ;; This function calls:
   830 ;;		_CANRxFifoInit
   831 ;;		_CANTxFifoInit
   832 ;;		_ConfigureCCP
   833 ;;		_ConfigureGPIO
   834 ;;		_ConfigureInterrupts
   835 ;;		_ConfigureOscillator
   836 ;;		_ConfigureTimers
   837 ;;		_ECANFiltersInit
   838 ;;		_ECANInitialize
   839 ;;		_ECANSendMessage
   840 ;;		_GetCANRxFifo
   841 ;;		_GetCANTxFifo
   842 ;;		_GetCanAdress
   843 ;;		_PutCANTxFifo
   844 ;;		_SystemTest
   845 ;; This function is called by:
   846 ;;		Startup code after reset
   847 ;; This function uses a non-reentrant model
   848 ;;
   849                           
   850                           	psect	text0
   851  000126                     __ptext0:
   852                           	opt stack 0
   853  000126                     _main:
   854                           	opt stack 25
   855                           
   856                           ;main.c: 57: char TempVar;
   857                           ;main.c: 58: unsigned int TempVarInt;
   858                           ;main.c: 61: char AutotestResult;
   859                           ;main.c: 64: struct CANTxMsg TempCANTxMsg;
   860                           ;main.c: 67: struct CANRxMsg TempCANRxMsg;
   861                           ;main.c: 75: ConfigureOscillator();
   862                           
   863                           ;incstack = 0
   864  000126  EC3B  F009         	call	_ConfigureOscillator	;wreg free
   865                           
   866                           ;main.c: 76: _delay((unsigned long)((10)*(64000000/4000.0)));
   867  00012A  0ED0               	movlw	208
   868  00012C  0100               	movlb	0	; () banked
   869  00012E  6F9B               	movwf	??_main& (0+255),b
   870  000130  0ECA               	movlw	202
   871  000132                     u1517:
   872  000132  2EE8               	decfsz	wreg,f,c
   873  000134  D7FE               	goto	u1517
   874  000136  2F9B               	decfsz	??_main& (0+255),f,b
   875  000138  D7FC               	goto	u1517
   876                           
   877                           ;main.c: 79: ConfigureGPIO();
   878  00013A  ECF0  F008         	call	_ConfigureGPIO	;wreg free
   879                           
   880                           ;main.c: 82: LocalCanAdress = GetCanAdress();
   881  00013E  EC42  F009         	call	_GetCanAdress	;wreg free
   882  000142  0100               	movlb	0	; () banked
   883  000144  0100               	movlb	0	; () banked
   884  000146  6FC9               	movwf	_LocalCanAdress& (0+255),b
   885                           
   886                           ; BSR set to: 0
   887                           ;main.c: 84: ECANInitialize();
   888  000148  EC95  F006         	call	_ECANInitialize	;wreg free
   889                           
   890                           ;main.c: 86: ECANFiltersInit();
   891  00014C  EC5B  F007         	call	_ECANFiltersInit	;wreg free
   892                           
   893                           ;main.c: 89: ConfigureTimers();
   894  000150  ECD0  F008         	call	_ConfigureTimers	;wreg free
   895                           
   896                           ;main.c: 92: ConfigureCCP();
   897  000154  EC67  F008         	call	_ConfigureCCP	;wreg free
   898                           
   899                           ;main.c: 99: CANTxFifoInit();
   900  000158  EC8E  F008         	call	_CANTxFifoInit	;wreg free
   901                           
   902                           ;main.c: 100: CANRxFifoInit();
   903  00015C  ECAF  F008         	call	_CANRxFifoInit	;wreg free
   904                           
   905                           ;main.c: 106: _delay((unsigned long)((10)*(64000000/4000.0)));
   906  000160  0ED0               	movlw	208
   907  000162  0100               	movlb	0	; () banked
   908  000164  6F9B               	movwf	??_main& (0+255),b
   909  000166  0ECA               	movlw	202
   910  000168                     u1527:
   911  000168  2EE8               	decfsz	wreg,f,c
   912  00016A  D7FE               	goto	u1527
   913  00016C  2F9B               	decfsz	??_main& (0+255),f,b
   914  00016E  D7FC               	goto	u1527
   915                           
   916                           ;main.c: 113: ConfigureInterrupts();
   917  000170  EC3F  F008         	call	_ConfigureInterrupts	;wreg free
   918                           
   919                           ;main.c: 115: AutotestResult = SystemTest();
   920  000174  EC45  F009         	call	_SystemTest	;wreg free
   921  000178  0100               	movlb	0	; () banked
   922  00017A  0100               	movlb	0	; () banked
   923  00017C  6FA1               	movwf	main@AutotestResult& (0+255),b
   924  00017E                     l1660:
   925                           
   926                           ;main.c: 124: {
   927                           ;main.c: 142: if (!CANRxFifo.FifoEmpty)
   928  00017E  0102               	movlb	2	; () banked
   929  000180  0102               	movlb	2	; () banked
   930  000182  678F               	tstfsz	(_CANRxFifo+143)& (0+255),b
   931  000184  D184               	goto	l1710
   932                           
   933                           ; BSR set to: 2
   934                           ;main.c: 143: {
   935                           ;main.c: 145: TempCANRxMsg = GetCANRxFifo();
   936  000186  EC27  F006         	call	_GetCANRxFifo	;wreg free
   937  00018A  EE20  F0A2         	lfsr	2,main@TempCANRxMsg
   938  00018E  0E0E               	movlw	14
   939  000190                     u901:
   940  000190  CFEE FFDE          	movff	postinc0,postinc2
   941  000194  2EE8               	decfsz	wreg,f,c
   942  000196  D7FC               	goto	u901
   943                           
   944                           ;main.c: 147: if (TempCANRxMsg.id == (0x07 << 7 | LocalCanAdress << 4 | 0))
   945  000198  0100               	movlb	0	; () banked
   946  00019A  0100               	movlb	0	; () banked
   947  00019C  51C9               	movf	_LocalCanAdress& (0+255),w,b
   948  00019E  0100               	movlb	0	; () banked
   949  0001A0  6F9B               	movwf	??_main& (0+255),b
   950  0001A2  6B9C               	clrf	(??_main+1)& (0+255),b
   951  0001A4  0100               	movlb	0	; () banked
   952  0001A6  3B9B               	swapf	??_main& (0+255),f,b
   953  0001A8  3B9C               	swapf	(??_main+1)& (0+255),f,b
   954  0001AA  0EF0               	movlw	240
   955  0001AC  179C               	andwf	(??_main+1)& (0+255),f,b
   956  0001AE  519B               	movf	??_main& (0+255),w,b
   957  0001B0  0B0F               	andlw	15
   958  0001B2  139C               	iorwf	(??_main+1)& (0+255),f,b
   959  0001B4  0EF0               	movlw	240
   960  0001B6  179B               	andwf	??_main& (0+255),f,b
   961  0001B8  0E80               	movlw	128
   962  0001BA  0100               	movlb	0	; () banked
   963  0001BC  119B               	iorwf	??_main& (0+255),w,b
   964  0001BE  0100               	movlb	0	; () banked
   965  0001C0  6F9D               	movwf	(??_main+2)& (0+255),b
   966  0001C2  0E03               	movlw	3
   967  0001C4  0100               	movlb	0	; () banked
   968  0001C6  119C               	iorwf	(??_main+1)& (0+255),w,b
   969  0001C8  0100               	movlb	0	; () banked
   970  0001CA  6F9E               	movwf	(??_main+3)& (0+255),b
   971  0001CC  0100               	movlb	0	; () banked
   972  0001CE  6B9F               	clrf	(??_main+4)& (0+255),b
   973  0001D0  0100               	movlb	0	; () banked
   974  0001D2  BF9E               	btfsc	(??_main+3)& (0+255),7,b
   975  0001D4  079F               	decf	(??_main+4)& (0+255),f,b
   976  0001D6  0100               	movlb	0	; () banked
   977  0001D8  519F               	movf	(??_main+4)& (0+255),w,b
   978  0001DA  0100               	movlb	0	; () banked
   979  0001DC  6FA0               	movwf	(??_main+5)& (0+255),b
   980  0001DE  0100               	movlb	0	; () banked
   981  0001E0  0100               	movlb	0	; () banked
   982  0001E2  51A5               	movf	(main@TempCANRxMsg+3)& (0+255),w,b
   983  0001E4  0100               	movlb	0	; () banked
   984  0001E6  19A0               	xorwf	(??_main+5)& (0+255),w,b
   985  0001E8  E111               	bnz	u915
   986  0001EA  0100               	movlb	0	; () banked
   987  0001EC  0100               	movlb	0	; () banked
   988  0001EE  51A4               	movf	(main@TempCANRxMsg+2)& (0+255),w,b
   989  0001F0  0100               	movlb	0	; () banked
   990  0001F2  199F               	xorwf	(??_main+4)& (0+255),w,b
   991  0001F4  E10B               	bnz	u915
   992  0001F6  0100               	movlb	0	; () banked
   993  0001F8  0100               	movlb	0	; () banked
   994  0001FA  51A3               	movf	(main@TempCANRxMsg+1)& (0+255),w,b
   995  0001FC  0100               	movlb	0	; () banked
   996  0001FE  199E               	xorwf	(??_main+3)& (0+255),w,b
   997  000200  E105               	bnz	u915
   998  000202  0100               	movlb	0	; () banked
   999  000204  0100               	movlb	0	; () banked
  1000  000206  51A2               	movf	main@TempCANRxMsg& (0+255),w,b
  1001  000208  0100               	movlb	0	; () banked
  1002  00020A  199D               	xorwf	(??_main+2)& (0+255),w,b
  1003  00020C                     u915:
  1004  00020C  B4D8               	btfsc	status,2,c
  1005  00020E  D13F               	goto	l1710
  1006                           
  1007                           ; BSR set to: 0
  1008                           ;main.c: 166: else if (TempCANRxMsg.id == (0x07 << 7 | LocalCanAdress << 4 | 0x6))
  1009                           
  1010                           ; BSR set to: 0
  1011                           
  1012                           ; BSR set to: 0
  1013                           ;main.c: 160: }
  1014                           ;main.c: 161: }
  1015                           
  1016                           ; BSR set to: 0
  1017                           
  1018                           ; BSR set to: 0
  1019                           
  1020                           ;main.c: 158: {
  1021                           
  1022                           ; BSR set to: 0
  1023                           
  1024                           ; BSR set to: 0
  1025                           
  1026                           ; BSR set to: 0
  1027                           
  1028                           ; BSR set to: 0
  1029                           ;main.c: 154: {
  1030                           ;main.c: 156: }
  1031                           
  1032                           ; BSR set to: 0
  1033                           
  1034                           ; BSR set to: 0
  1035                           
  1036                           ; BSR set to: 0
  1037                           
  1038                           ; BSR set to: 0
  1039                           ;main.c: 150: {
  1040                           ;main.c: 152: }
  1041                           
  1042                           ; BSR set to: 0
  1043                           
  1044                           ; BSR set to: 0
  1045  000210  0100               	movlb	0	; () banked
  1046  000212  0100               	movlb	0	; () banked
  1047  000214  51C9               	movf	_LocalCanAdress& (0+255),w,b
  1048  000216  0100               	movlb	0	; () banked
  1049  000218  6F9B               	movwf	??_main& (0+255),b
  1050  00021A  6B9C               	clrf	(??_main+1)& (0+255),b
  1051  00021C  0100               	movlb	0	; () banked
  1052  00021E  3B9B               	swapf	??_main& (0+255),f,b
  1053  000220  3B9C               	swapf	(??_main+1)& (0+255),f,b
  1054  000222  0EF0               	movlw	240
  1055  000224  179C               	andwf	(??_main+1)& (0+255),f,b
  1056  000226  519B               	movf	??_main& (0+255),w,b
  1057  000228  0B0F               	andlw	15
  1058  00022A  139C               	iorwf	(??_main+1)& (0+255),f,b
  1059  00022C  0EF0               	movlw	240
  1060  00022E  179B               	andwf	??_main& (0+255),f,b
  1061  000230  0E86               	movlw	134
  1062  000232  0100               	movlb	0	; () banked
  1063  000234  119B               	iorwf	??_main& (0+255),w,b
  1064  000236  0100               	movlb	0	; () banked
  1065  000238  6F9D               	movwf	(??_main+2)& (0+255),b
  1066  00023A  0E03               	movlw	3
  1067  00023C  0100               	movlb	0	; () banked
  1068  00023E  119C               	iorwf	(??_main+1)& (0+255),w,b
  1069  000240  0100               	movlb	0	; () banked
  1070  000242  6F9E               	movwf	(??_main+3)& (0+255),b
  1071  000244  0100               	movlb	0	; () banked
  1072  000246  6B9F               	clrf	(??_main+4)& (0+255),b
  1073  000248  0100               	movlb	0	; () banked
  1074  00024A  BF9E               	btfsc	(??_main+3)& (0+255),7,b
  1075  00024C  079F               	decf	(??_main+4)& (0+255),f,b
  1076  00024E  0100               	movlb	0	; () banked
  1077  000250  519F               	movf	(??_main+4)& (0+255),w,b
  1078  000252  0100               	movlb	0	; () banked
  1079  000254  6FA0               	movwf	(??_main+5)& (0+255),b
  1080  000256  0100               	movlb	0	; () banked
  1081  000258  0100               	movlb	0	; () banked
  1082  00025A  51A5               	movf	(main@TempCANRxMsg+3)& (0+255),w,b
  1083  00025C  0100               	movlb	0	; () banked
  1084  00025E  19A0               	xorwf	(??_main+5)& (0+255),w,b
  1085  000260  E111               	bnz	u925
  1086  000262  0100               	movlb	0	; () banked
  1087  000264  0100               	movlb	0	; () banked
  1088  000266  51A4               	movf	(main@TempCANRxMsg+2)& (0+255),w,b
  1089  000268  0100               	movlb	0	; () banked
  1090  00026A  199F               	xorwf	(??_main+4)& (0+255),w,b
  1091  00026C  E10B               	bnz	u925
  1092  00026E  0100               	movlb	0	; () banked
  1093  000270  0100               	movlb	0	; () banked
  1094  000272  51A3               	movf	(main@TempCANRxMsg+1)& (0+255),w,b
  1095  000274  0100               	movlb	0	; () banked
  1096  000276  199E               	xorwf	(??_main+3)& (0+255),w,b
  1097  000278  E105               	bnz	u925
  1098  00027A  0100               	movlb	0	; () banked
  1099  00027C  0100               	movlb	0	; () banked
  1100  00027E  51A2               	movf	main@TempCANRxMsg& (0+255),w,b
  1101  000280  0100               	movlb	0	; () banked
  1102  000282  199D               	xorwf	(??_main+2)& (0+255),w,b
  1103  000284                     u925:
  1104  000284  A4D8               	btfss	status,2,c
  1105  000286  D064               	goto	l1696
  1106                           
  1107                           ; BSR set to: 0
  1108                           ;main.c: 167: {
  1109                           ;main.c: 168: if (TempCANRxMsg.dataLen == 2 && TempCANRxMsg.flags == ECAN_RX_RTR_FRAME)
  1110  000288  0100               	movlb	0	; () banked
  1111  00028A  0100               	movlb	0	; () banked
  1112  00028C  51AE               	movf	(main@TempCANRxMsg+12)& (0+255),w,b
  1113  00028E  0A02               	xorlw	2
  1114  000290  A4D8               	btfss	status,2,c
  1115  000292  D0FD               	goto	l1710
  1116                           
  1117                           ; BSR set to: 0
  1118  000294  0100               	movlb	0	; () banked
  1119  000296  0100               	movlb	0	; () banked
  1120  000298  51AF               	movf	(main@TempCANRxMsg+13)& (0+255),w,b
  1121  00029A  0A40               	xorlw	64
  1122  00029C  A4D8               	btfss	status,2,c
  1123  00029E  D0F7               	goto	l1710
  1124                           
  1125                           ; BSR set to: 0
  1126                           ;main.c: 169: {
  1127                           ;main.c: 170: TempCANTxMsg.data_TX[0]=1;
  1128  0002A0  0100               	movlb	0	; () banked
  1129  0002A2  6F9B               	movwf	??_main& (0+255),b
  1130  0002A4  0E01               	movlw	1
  1131  0002A6  0100               	movlb	0	; () banked
  1132  0002A8  0100               	movlb	0	; () banked
  1133  0002AA  6FB4               	movwf	(main@TempCANTxMsg+4)& (0+255),b
  1134  0002AC  0100               	movlb	0	; () banked
  1135  0002AE  519B               	movf	??_main& (0+255),w,b
  1136                           
  1137                           ;main.c: 171: TempCANTxMsg.data_TX[1]=0;
  1138  0002B0  0100               	movlb	0	; () banked
  1139  0002B2  6F9B               	movwf	??_main& (0+255),b
  1140  0002B4  0E00               	movlw	0
  1141  0002B6  0100               	movlb	0	; () banked
  1142  0002B8  0100               	movlb	0	; () banked
  1143  0002BA  6FB5               	movwf	(main@TempCANTxMsg+5)& (0+255),b
  1144  0002BC  0100               	movlb	0	; () banked
  1145  0002BE  519B               	movf	??_main& (0+255),w,b
  1146                           
  1147                           ;main.c: 172: TempCANTxMsg.dataLen= 2;
  1148  0002C0  0100               	movlb	0	; () banked
  1149  0002C2  6F9B               	movwf	??_main& (0+255),b
  1150  0002C4  0E02               	movlw	2
  1151  0002C6  0100               	movlb	0	; () banked
  1152  0002C8  0100               	movlb	0	; () banked
  1153  0002CA  6FBC               	movwf	(main@TempCANTxMsg+12)& (0+255),b
  1154  0002CC  0100               	movlb	0	; () banked
  1155  0002CE  519B               	movf	??_main& (0+255),w,b
  1156                           
  1157                           ; BSR set to: 0
  1158                           ;main.c: 173: TempCANTxMsg.id = (0x07 << 7 | LocalCanAdress <<4 | 0x6 );
  1159  0002D0  0E86               	movlw	134
  1160  0002D2  0100               	movlb	0	; () banked
  1161  0002D4  6F9B               	movwf	??_main& (0+255),b
  1162  0002D6  0E03               	movlw	3
  1163  0002D8  6F9C               	movwf	(??_main+1)& (0+255),b
  1164  0002DA  0100               	movlb	0	; () banked
  1165  0002DC  0100               	movlb	0	; () banked
  1166  0002DE  51C9               	movf	_LocalCanAdress& (0+255),w,b
  1167  0002E0  0100               	movlb	0	; () banked
  1168  0002E2  6F9D               	movwf	(??_main+2)& (0+255),b
  1169  0002E4  6B9E               	clrf	(??_main+3)& (0+255),b
  1170  0002E6  0100               	movlb	0	; () banked
  1171  0002E8  3B9D               	swapf	(??_main+2)& (0+255),f,b
  1172  0002EA  3B9E               	swapf	(??_main+3)& (0+255),f,b
  1173  0002EC  0EF0               	movlw	240
  1174  0002EE  179E               	andwf	(??_main+3)& (0+255),f,b
  1175  0002F0  519D               	movf	(??_main+2)& (0+255),w,b
  1176  0002F2  0B0F               	andlw	15
  1177  0002F4  139E               	iorwf	(??_main+3)& (0+255),f,b
  1178  0002F6  0EF0               	movlw	240
  1179  0002F8  179D               	andwf	(??_main+2)& (0+255),f,b
  1180  0002FA  0100               	movlb	0	; () banked
  1181  0002FC  519B               	movf	??_main& (0+255),w,b
  1182  0002FE  0100               	movlb	0	; () banked
  1183  000300  139D               	iorwf	(??_main+2)& (0+255),f,b
  1184  000302  0100               	movlb	0	; () banked
  1185  000304  519C               	movf	(??_main+1)& (0+255),w,b
  1186  000306  0100               	movlb	0	; () banked
  1187  000308  139E               	iorwf	(??_main+3)& (0+255),f,b
  1188  00030A  0100               	movlb	0	; () banked
  1189  00030C  C09D  F0B0         	movff	??_main+2,main@TempCANTxMsg
  1190  000310  0100               	movlb	0	; () banked
  1191  000312  C09E  F0B1         	movff	??_main+3,main@TempCANTxMsg+1
  1192  000316  0100               	movlb	0	; () banked
  1193  000318  0E00               	movlw	0
  1194  00031A  0100               	movlb	0	; () banked
  1195  00031C  BFB1               	btfsc	(main@TempCANTxMsg+1)& (0+255),7,b
  1196  00031E  0EFF               	movlw	-1
  1197  000320  0100               	movlb	0	; () banked
  1198  000322  6FB2               	movwf	(main@TempCANTxMsg+2)& (0+255),b
  1199  000324  0100               	movlb	0	; () banked
  1200  000326  6FB3               	movwf	(main@TempCANTxMsg+3)& (0+255),b
  1201                           
  1202                           ; BSR set to: 0
  1203                           ;main.c: 174: TempCANTxMsg.flags = ECAN_TX_STD_FRAME;
  1204  000328  0100               	movlb	0	; () banked
  1205  00032A  6F9B               	movwf	??_main& (0+255),b
  1206  00032C  0E00               	movlw	0
  1207  00032E  0100               	movlb	0	; () banked
  1208  000330  0100               	movlb	0	; () banked
  1209  000332  6FBD               	movwf	(main@TempCANTxMsg+13)& (0+255),b
  1210  000334  0100               	movlb	0	; () banked
  1211  000336  519B               	movf	??_main& (0+255),w,b
  1212                           
  1213                           ; BSR set to: 0
  1214                           ;main.c: 175: PutCANTxFifo(TempCANTxMsg);
  1215  000338  EE20  F0B0         	lfsr	2,main@TempCANTxMsg
  1216  00033C  EE10  F06E         	lfsr	1,PutCANTxFifo@PutMessage
  1217  000340  0E0E               	movlw	14
  1218  000342                     u951:
  1219  000342  CFDE FFE6          	movff	postinc2,postinc1
  1220  000346  2EE8               	decfsz	wreg,f,c
  1221  000348  D7FC               	goto	u951
  1222  00034A  ECB6  F007         	call	_PutCANTxFifo	;wreg free
  1223  00034E  D09F               	goto	l1710
  1224  000350                     l1696:
  1225                           
  1226                           ;main.c: 181: else if (TempCANRxMsg.id == (0x07 << 7 | LocalCanAdress << 4 | 0xF))
  1227  000350  0100               	movlb	0	; () banked
  1228  000352  0100               	movlb	0	; () banked
  1229  000354  51C9               	movf	_LocalCanAdress& (0+255),w,b
  1230  000356  0100               	movlb	0	; () banked
  1231  000358  6F9B               	movwf	??_main& (0+255),b
  1232  00035A  6B9C               	clrf	(??_main+1)& (0+255),b
  1233  00035C  0100               	movlb	0	; () banked
  1234  00035E  3B9B               	swapf	??_main& (0+255),f,b
  1235  000360  3B9C               	swapf	(??_main+1)& (0+255),f,b
  1236  000362  0EF0               	movlw	240
  1237  000364  179C               	andwf	(??_main+1)& (0+255),f,b
  1238  000366  519B               	movf	??_main& (0+255),w,b
  1239  000368  0B0F               	andlw	15
  1240  00036A  139C               	iorwf	(??_main+1)& (0+255),f,b
  1241  00036C  0EF0               	movlw	240
  1242  00036E  179B               	andwf	??_main& (0+255),f,b
  1243  000370  0E8F               	movlw	143
  1244  000372  0100               	movlb	0	; () banked
  1245  000374  119B               	iorwf	??_main& (0+255),w,b
  1246  000376  0100               	movlb	0	; () banked
  1247  000378  6F9D               	movwf	(??_main+2)& (0+255),b
  1248  00037A  0E03               	movlw	3
  1249  00037C  0100               	movlb	0	; () banked
  1250  00037E  119C               	iorwf	(??_main+1)& (0+255),w,b
  1251  000380  0100               	movlb	0	; () banked
  1252  000382  6F9E               	movwf	(??_main+3)& (0+255),b
  1253  000384  0100               	movlb	0	; () banked
  1254  000386  6B9F               	clrf	(??_main+4)& (0+255),b
  1255  000388  0100               	movlb	0	; () banked
  1256  00038A  BF9E               	btfsc	(??_main+3)& (0+255),7,b
  1257  00038C  079F               	decf	(??_main+4)& (0+255),f,b
  1258  00038E  0100               	movlb	0	; () banked
  1259  000390  519F               	movf	(??_main+4)& (0+255),w,b
  1260  000392  0100               	movlb	0	; () banked
  1261  000394  6FA0               	movwf	(??_main+5)& (0+255),b
  1262  000396  0100               	movlb	0	; () banked
  1263  000398  0100               	movlb	0	; () banked
  1264  00039A  51A5               	movf	(main@TempCANRxMsg+3)& (0+255),w,b
  1265  00039C  0100               	movlb	0	; () banked
  1266  00039E  19A0               	xorwf	(??_main+5)& (0+255),w,b
  1267  0003A0  E111               	bnz	u965
  1268  0003A2  0100               	movlb	0	; () banked
  1269  0003A4  0100               	movlb	0	; () banked
  1270  0003A6  51A4               	movf	(main@TempCANRxMsg+2)& (0+255),w,b
  1271  0003A8  0100               	movlb	0	; () banked
  1272  0003AA  199F               	xorwf	(??_main+4)& (0+255),w,b
  1273  0003AC  E10B               	bnz	u965
  1274  0003AE  0100               	movlb	0	; () banked
  1275  0003B0  0100               	movlb	0	; () banked
  1276  0003B2  51A3               	movf	(main@TempCANRxMsg+1)& (0+255),w,b
  1277  0003B4  0100               	movlb	0	; () banked
  1278  0003B6  199E               	xorwf	(??_main+3)& (0+255),w,b
  1279  0003B8  E105               	bnz	u965
  1280  0003BA  0100               	movlb	0	; () banked
  1281  0003BC  0100               	movlb	0	; () banked
  1282  0003BE  51A2               	movf	main@TempCANRxMsg& (0+255),w,b
  1283  0003C0  0100               	movlb	0	; () banked
  1284  0003C2  199D               	xorwf	(??_main+2)& (0+255),w,b
  1285  0003C4                     u965:
  1286  0003C4  A4D8               	btfss	status,2,c
  1287  0003C6  D063               	goto	l1710
  1288                           
  1289                           ; BSR set to: 0
  1290                           ;main.c: 182: {
  1291                           ;main.c: 184: if (TempCANRxMsg.dataLen == 2 && TempCANRxMsg.flags == ECAN_RX_RTR_FRAME)
  1292  0003C8  0100               	movlb	0	; () banked
  1293  0003CA  0100               	movlb	0	; () banked
  1294  0003CC  51AE               	movf	(main@TempCANRxMsg+12)& (0+255),w,b
  1295  0003CE  0A02               	xorlw	2
  1296  0003D0  A4D8               	btfss	status,2,c
  1297  0003D2  D05D               	goto	l1710
  1298                           
  1299                           ; BSR set to: 0
  1300  0003D4  0100               	movlb	0	; () banked
  1301  0003D6  0100               	movlb	0	; () banked
  1302  0003D8  51AF               	movf	(main@TempCANRxMsg+13)& (0+255),w,b
  1303  0003DA  0A40               	xorlw	64
  1304  0003DC  A4D8               	btfss	status,2,c
  1305  0003DE  D057               	goto	l1710
  1306                           
  1307                           ; BSR set to: 0
  1308                           ;main.c: 185: {
  1309                           ;main.c: 186: TempCANTxMsg.data_TX[0]=1;
  1310  0003E0  0100               	movlb	0	; () banked
  1311  0003E2  6F9B               	movwf	??_main& (0+255),b
  1312  0003E4  0E01               	movlw	1
  1313  0003E6  0100               	movlb	0	; () banked
  1314  0003E8  0100               	movlb	0	; () banked
  1315  0003EA  6FB4               	movwf	(main@TempCANTxMsg+4)& (0+255),b
  1316  0003EC  0100               	movlb	0	; () banked
  1317  0003EE  519B               	movf	??_main& (0+255),w,b
  1318                           
  1319                           ;main.c: 187: TempCANTxMsg.data_TX[1]=1;
  1320  0003F0  0100               	movlb	0	; () banked
  1321  0003F2  6F9B               	movwf	??_main& (0+255),b
  1322  0003F4  0E01               	movlw	1
  1323  0003F6  0100               	movlb	0	; () banked
  1324  0003F8  0100               	movlb	0	; () banked
  1325  0003FA  6FB5               	movwf	(main@TempCANTxMsg+5)& (0+255),b
  1326  0003FC  0100               	movlb	0	; () banked
  1327  0003FE  519B               	movf	??_main& (0+255),w,b
  1328                           
  1329                           ;main.c: 188: TempCANTxMsg.dataLen= 2;
  1330  000400  0100               	movlb	0	; () banked
  1331  000402  6F9B               	movwf	??_main& (0+255),b
  1332  000404  0E02               	movlw	2
  1333  000406  0100               	movlb	0	; () banked
  1334  000408  0100               	movlb	0	; () banked
  1335  00040A  6FBC               	movwf	(main@TempCANTxMsg+12)& (0+255),b
  1336  00040C  0100               	movlb	0	; () banked
  1337  00040E  519B               	movf	??_main& (0+255),w,b
  1338                           
  1339                           ; BSR set to: 0
  1340                           ;main.c: 189: TempCANTxMsg.id = (0x07 << 7 | LocalCanAdress <<4 | 0xF );
  1341  000410  0E8F               	movlw	143
  1342  000412  0100               	movlb	0	; () banked
  1343  000414  6F9B               	movwf	??_main& (0+255),b
  1344  000416  0E03               	movlw	3
  1345  000418  6F9C               	movwf	(??_main+1)& (0+255),b
  1346  00041A  0100               	movlb	0	; () banked
  1347  00041C  0100               	movlb	0	; () banked
  1348  00041E  51C9               	movf	_LocalCanAdress& (0+255),w,b
  1349  000420  0100               	movlb	0	; () banked
  1350  000422  6F9D               	movwf	(??_main+2)& (0+255),b
  1351  000424  6B9E               	clrf	(??_main+3)& (0+255),b
  1352  000426  0100               	movlb	0	; () banked
  1353  000428  3B9D               	swapf	(??_main+2)& (0+255),f,b
  1354  00042A  3B9E               	swapf	(??_main+3)& (0+255),f,b
  1355  00042C  0EF0               	movlw	240
  1356  00042E  179E               	andwf	(??_main+3)& (0+255),f,b
  1357  000430  519D               	movf	(??_main+2)& (0+255),w,b
  1358  000432  0B0F               	andlw	15
  1359  000434  139E               	iorwf	(??_main+3)& (0+255),f,b
  1360  000436  0EF0               	movlw	240
  1361  000438  179D               	andwf	(??_main+2)& (0+255),f,b
  1362  00043A  0100               	movlb	0	; () banked
  1363  00043C  519B               	movf	??_main& (0+255),w,b
  1364  00043E  0100               	movlb	0	; () banked
  1365  000440  139D               	iorwf	(??_main+2)& (0+255),f,b
  1366  000442  0100               	movlb	0	; () banked
  1367  000444  519C               	movf	(??_main+1)& (0+255),w,b
  1368  000446  0100               	movlb	0	; () banked
  1369  000448  139E               	iorwf	(??_main+3)& (0+255),f,b
  1370  00044A  0100               	movlb	0	; () banked
  1371  00044C  C09D  F0B0         	movff	??_main+2,main@TempCANTxMsg
  1372  000450  0100               	movlb	0	; () banked
  1373  000452  C09E  F0B1         	movff	??_main+3,main@TempCANTxMsg+1
  1374  000456  0100               	movlb	0	; () banked
  1375  000458  0E00               	movlw	0
  1376  00045A  0100               	movlb	0	; () banked
  1377  00045C  BFB1               	btfsc	(main@TempCANTxMsg+1)& (0+255),7,b
  1378  00045E  0EFF               	movlw	-1
  1379  000460  0100               	movlb	0	; () banked
  1380  000462  6FB2               	movwf	(main@TempCANTxMsg+2)& (0+255),b
  1381  000464  0100               	movlb	0	; () banked
  1382  000466  6FB3               	movwf	(main@TempCANTxMsg+3)& (0+255),b
  1383                           
  1384                           ; BSR set to: 0
  1385                           ;main.c: 190: TempCANTxMsg.flags = ECAN_TX_STD_FRAME;
  1386  000468  0100               	movlb	0	; () banked
  1387  00046A  6F9B               	movwf	??_main& (0+255),b
  1388  00046C  0E00               	movlw	0
  1389  00046E  0100               	movlb	0	; () banked
  1390  000470  0100               	movlb	0	; () banked
  1391  000472  6FBD               	movwf	(main@TempCANTxMsg+13)& (0+255),b
  1392  000474  0100               	movlb	0	; () banked
  1393  000476  519B               	movf	??_main& (0+255),w,b
  1394                           
  1395                           ; BSR set to: 0
  1396                           ;main.c: 191: PutCANTxFifo(TempCANTxMsg);
  1397  000478  EE20  F0B0         	lfsr	2,main@TempCANTxMsg
  1398  00047C  EE10  F06E         	lfsr	1,PutCANTxFifo@PutMessage
  1399  000480  0E0E               	movlw	14
  1400  000482                     u991:
  1401  000482  CFDE FFE6          	movff	postinc2,postinc1
  1402  000486  2EE8               	decfsz	wreg,f,c
  1403  000488  D7FC               	goto	u991
  1404  00048A  ECB6  F007         	call	_PutCANTxFifo	;wreg free
  1405  00048E                     l1710:
  1406                           
  1407                           ;main.c: 192: }
  1408                           ;main.c: 193: }
  1409                           ;main.c: 194: }
  1410                           ;main.c: 201: if(!CANTxFifo.FifoEmpty && !TXB0CONbits.TXREQ)
  1411  00048E  0101               	movlb	1	; () banked
  1412  000490  0101               	movlb	1	; () banked
  1413  000492  678F               	tstfsz	(_CANTxFifo+143)& (0+255),b
  1414  000494  D674               	goto	l1660
  1415                           
  1416                           ; BSR set to: 1
  1417  000496  010F               	movlb	15	; () banked
  1418  000498  B720               	btfsc	32,3,b	;volatile
  1419  00049A  D671               	goto	l1660
  1420                           
  1421                           ; BSR set to: 15
  1422                           ;main.c: 202: {
  1423                           ;main.c: 203: TempCANTxMsg=GetCANTxFifo();
  1424  00049C  ECB9  F005         	call	_GetCANTxFifo	;wreg free
  1425  0004A0  EE20  F0B0         	lfsr	2,main@TempCANTxMsg
  1426  0004A4  0E0E               	movlw	14
  1427  0004A6                     u1021:
  1428  0004A6  CFEE FFDE          	movff	postinc0,postinc2
  1429  0004AA  2EE8               	decfsz	wreg,f,c
  1430  0004AC  D7FC               	goto	u1021
  1431                           
  1432                           ;main.c: 204: ECANSendMessage(TempCANTxMsg.id,TempCANTxMsg.data_TX,TempCANTxMsg.dataLen,
      +                          TempCANTxMsg.flags);
  1433  0004AE  C0B0  F079         	movff	main@TempCANTxMsg,ECANSendMessage@id
  1434  0004B2  C0B1  F07A         	movff	main@TempCANTxMsg+1,ECANSendMessage@id+1
  1435  0004B6  C0B2  F07B         	movff	main@TempCANTxMsg+2,ECANSendMessage@id+2
  1436  0004BA  C0B3  F07C         	movff	main@TempCANTxMsg+3,ECANSendMessage@id+3
  1437  0004BE  0100               	movlb	0	; () banked
  1438  0004C0  0E00               	movlw	high (main@TempCANTxMsg+4)
  1439  0004C2  0100               	movlb	0	; () banked
  1440  0004C4  0100               	movlb	0	; () banked
  1441  0004C6  6F7E               	movwf	(ECANSendMessage@data+1)& (0+255),b
  1442  0004C8  0100               	movlb	0	; () banked
  1443  0004CA  0EB4               	movlw	low (main@TempCANTxMsg+4)
  1444  0004CC  0100               	movlb	0	; () banked
  1445  0004CE  0100               	movlb	0	; () banked
  1446  0004D0  6F7D               	movwf	ECANSendMessage@data& (0+255),b
  1447  0004D2  C0BC  F07F         	movff	main@TempCANTxMsg+12,ECANSendMessage@dataLen
  1448  0004D6  C0BD  F080         	movff	main@TempCANTxMsg+13,ECANSendMessage@msgFlags
  1449  0004DA  EC60  F003         	call	_ECANSendMessage	;wreg free
  1450  0004DE  D64F               	goto	l1660
  1451  0004E0                     __end_of_main:
  1452                           	opt stack 0
  1453                           pclatu	equ	0xFFB
  1454                           pclath	equ	0xFFA
  1455                           tblptru	equ	0xFF8
  1456                           tblptrh	equ	0xFF7
  1457                           tblptrl	equ	0xFF6
  1458                           tablat	equ	0xFF5
  1459                           prodh	equ	0xFF4
  1460                           prodl	equ	0xFF3
  1461                           intcon	equ	0xFF2
  1462                           postinc0	equ	0xFEE
  1463                           fsr0h	equ	0xFEA
  1464                           fsr0l	equ	0xFE9
  1465                           wreg	equ	0xFE8
  1466                           postinc1	equ	0xFE6
  1467                           fsr1h	equ	0xFE2
  1468                           fsr1l	equ	0xFE1
  1469                           bsr	equ	0xFE0
  1470                           postinc2	equ	0xFDE
  1471                           fsr2h	equ	0xFDA
  1472                           fsr2l	equ	0xFD9
  1473                           status	equ	0xFD8
  1474                           
  1475 ;; *************** function _SystemTest *****************
  1476 ;; Defined at:
  1477 ;;		line 172 in file "system.c"
  1478 ;; Parameters:    Size  Location     Type
  1479 ;;		None
  1480 ;; Auto vars:     Size  Location     Type
  1481 ;;		None
  1482 ;; Return value:  Size  Location     Type
  1483 ;;                  1    wreg      unsigned char 
  1484 ;; Registers used:
  1485 ;;		wreg
  1486 ;; Tracked objects:
  1487 ;;		On entry : 0/0
  1488 ;;		On exit  : 0/0
  1489 ;;		Unchanged: 0/0
  1490 ;; Data sizes:     COMRAM   BANK0   BANK1   BANK2   BANK3   BANK4   BANK5   BANK6   BANK7   BANK8   BANK9  BANK10  BANK1
      +1  BANK12  BANK13  BANK14
  1491 ;;      Params:         0       0       0       0       0       0       0       0       0       0       0       0       
      +0       0       0       0
  1492 ;;      Locals:         0       0       0       0       0       0       0       0       0       0       0       0       
      +0       0       0       0
  1493 ;;      Temps:          0       0       0       0       0       0       0       0       0       0       0       0       
      +0       0       0       0
  1494 ;;      Totals:         0       0       0       0       0       0       0       0       0       0       0       0       
      +0       0       0       0
  1495 ;;Total ram usage:        0 bytes
  1496 ;; Hardware stack levels used:    1
  1497 ;; Hardware stack levels required when called:    4
  1498 ;; This function calls:
  1499 ;;		Nothing
  1500 ;; This function is called by:
  1501 ;;		_main
  1502 ;; This function uses a non-reentrant model
  1503 ;;
  1504                           
  1505                           	psect	text1
  1506  00128A                     __ptext1:
  1507                           	opt stack 0
  1508  00128A                     _SystemTest:
  1509                           	opt stack 26
  1510                           
  1511                           ;system.c: 174: return 1;
  1512                           
  1513                           ;incstack = 0
  1514  00128A  0E01               	movlw	1
  1515  00128C  0012               	return	
  1516  00128E                     __end_of_SystemTest:
  1517                           	opt stack 0
  1518                           pclatu	equ	0xFFB
  1519                           pclath	equ	0xFFA
  1520                           tblptru	equ	0xFF8
  1521                           tblptrh	equ	0xFF7
  1522                           tblptrl	equ	0xFF6
  1523                           tablat	equ	0xFF5
  1524                           prodh	equ	0xFF4
  1525                           prodl	equ	0xFF3
  1526                           intcon	equ	0xFF2
  1527                           postinc0	equ	0xFEE
  1528                           fsr0h	equ	0xFEA
  1529                           fsr0l	equ	0xFE9
  1530                           wreg	equ	0xFE8
  1531                           postinc1	equ	0xFE6
  1532                           fsr1h	equ	0xFE2
  1533                           fsr1l	equ	0xFE1
  1534                           bsr	equ	0xFE0
  1535                           postinc2	equ	0xFDE
  1536                           fsr2h	equ	0xFDA
  1537                           fsr2l	equ	0xFD9
  1538                           status	equ	0xFD8
  1539                           
  1540 ;; *************** function _PutCANTxFifo *****************
  1541 ;; Defined at:
  1542 ;;		line 44 in file "Can_HL.c"
  1543 ;; Parameters:    Size  Location     Type
  1544 ;;  PutMessage     14   14[BANK0 ] struct CANTxMsg
  1545 ;; Auto vars:     Size  Location     Type
  1546 ;;		None
  1547 ;; Return value:  Size  Location     Type
  1548 ;;		None               void
  1549 ;; Registers used:
  1550 ;;		wreg, fsr1l, fsr1h, fsr2l, fsr2h, status,2, status,0, prodl, prodh
  1551 ;; Tracked objects:
  1552 ;;		On entry : 0/0
  1553 ;;		On exit  : 0/0
  1554 ;;		Unchanged: 0/0
  1555 ;; Data sizes:     COMRAM   BANK0   BANK1   BANK2   BANK3   BANK4   BANK5   BANK6   BANK7   BANK8   BANK9  BANK10  BANK1
      +1  BANK12  BANK13  BANK14
  1556 ;;      Params:         0      14       0       0       0       0       0       0       0       0       0       0       
      +0       0       0       0
  1557 ;;      Locals:         0       0       0       0       0       0       0       0       0       0       0       0       
      +0       0       0       0
  1558 ;;      Temps:          0       2       0       0       0       0       0       0       0       0       0       0       
      +0       0       0       0
  1559 ;;      Totals:         0      16       0       0       0       0       0       0       0       0       0       0       
      +0       0       0       0
  1560 ;;Total ram usage:       16 bytes
  1561 ;; Hardware stack levels used:    1
  1562 ;; Hardware stack levels required when called:    4
  1563 ;; This function calls:
  1564 ;;		Nothing
  1565 ;; This function is called by:
  1566 ;;		_main
  1567 ;; This function uses a non-reentrant model
  1568 ;;
  1569                           
  1570                           	psect	text2
  1571  000F6C                     __ptext2:
  1572                           	opt stack 0
  1573  000F6C                     _PutCANTxFifo:
  1574                           	opt stack 26
  1575                           
  1576                           ;Can_HL.c: 47: if(!CANTxFifo.Fifofull)
  1577                           
  1578                           ;incstack = 0
  1579  000F6C  0101               	movlb	1	; () banked
  1580  000F6E  0101               	movlb	1	; () banked
  1581  000F70  678E               	tstfsz	(_CANTxFifo+142)& (0+255),b
  1582  000F72  0012               	return	
  1583                           
  1584                           ; BSR set to: 1
  1585                           ;Can_HL.c: 48: {
  1586                           ;Can_HL.c: 49: INTCONbits.GIE=0;
  1587  000F74  9EF2               	bcf	intcon,7,c	;volatile
  1588                           
  1589                           ; BSR set to: 1
  1590                           ;Can_HL.c: 50: CANTxFifo.CANMsg[CANTxFifo.HighIndex]=PutMessage;
  1591  000F76  EE20  F06E         	lfsr	2,PutCANTxFifo@PutMessage
  1592  000F7A  0101               	movlb	1	; () banked
  1593  000F7C  0101               	movlb	1	; () banked
  1594  000F7E  518D               	movf	(_CANTxFifo+141)& (0+255),w,b
  1595  000F80  0D0E               	mullw	14
  1596  000F82  0E00               	movlw	low _CANTxFifo
  1597  000F84  0100               	movlb	0	; () banked
  1598  000F86  6F7C               	movwf	??_PutCANTxFifo& (0+255),b
  1599  000F88  0E01               	movlw	high _CANTxFifo
  1600  000F8A  6F7D               	movwf	(??_PutCANTxFifo+1)& (0+255),b
  1601  000F8C  50F3               	movf	prodl,w,c
  1602  000F8E  0100               	movlb	0	; () banked
  1603  000F90  277C               	addwf	??_PutCANTxFifo& (0+255),f,b
  1604  000F92  50F4               	movf	prodh,w,c
  1605  000F94  0100               	movlb	0	; () banked
  1606  000F96  237D               	addwfc	(??_PutCANTxFifo+1)& (0+255),f,b
  1607  000F98  C07C  FFE1         	movff	??_PutCANTxFifo,fsr1l
  1608  000F9C  C07D  FFE2         	movff	??_PutCANTxFifo+1,fsr1h
  1609  000FA0  0E0E               	movlw	14
  1610  000FA2                     u1101:
  1611  000FA2  CFDE FFE6          	movff	postinc2,postinc1
  1612  000FA6  2EE8               	decfsz	wreg,f,c
  1613  000FA8  D7FC               	goto	u1101
  1614                           
  1615                           ; BSR set to: 0
  1616                           ;Can_HL.c: 51: CANTxFifo.FifoEmpty=0;
  1617  000FAA  0100               	movlb	0	; () banked
  1618  000FAC  6F7C               	movwf	??_PutCANTxFifo& (0+255),b
  1619  000FAE  0E00               	movlw	0
  1620  000FB0  0101               	movlb	1	; () banked
  1621  000FB2  0101               	movlb	1	; () banked
  1622  000FB4  6F8F               	movwf	(_CANTxFifo+143)& (0+255),b
  1623  000FB6  0100               	movlb	0	; () banked
  1624  000FB8  517C               	movf	??_PutCANTxFifo& (0+255),w,b
  1625                           
  1626                           ; BSR set to: 0
  1627                           ;Can_HL.c: 52: CANTxFifo.HighIndex++;
  1628  000FBA  0101               	movlb	1	; () banked
  1629  000FBC  0101               	movlb	1	; () banked
  1630  000FBE  2B8D               	incf	(_CANTxFifo+141)& (0+255),f,b
  1631                           
  1632                           ; BSR set to: 1
  1633                           ;Can_HL.c: 54: if(CANTxFifo.HighIndex==(10))
  1634  000FC0  0101               	movlb	1	; () banked
  1635  000FC2  0101               	movlb	1	; () banked
  1636  000FC4  518D               	movf	(_CANTxFifo+141)& (0+255),w,b
  1637  000FC6  0A0A               	xorlw	10
  1638  000FC8  A4D8               	btfss	status,2,c
  1639  000FCA  D008               	goto	l1898
  1640                           
  1641                           ; BSR set to: 1
  1642                           ;Can_HL.c: 55: CANTxFifo.HighIndex=0;
  1643  000FCC  0100               	movlb	0	; () banked
  1644  000FCE  6F7C               	movwf	??_PutCANTxFifo& (0+255),b
  1645  000FD0  0E00               	movlw	0
  1646  000FD2  0101               	movlb	1	; () banked
  1647  000FD4  0101               	movlb	1	; () banked
  1648  000FD6  6F8D               	movwf	(_CANTxFifo+141)& (0+255),b
  1649  000FD8  0100               	movlb	0	; () banked
  1650  000FDA  517C               	movf	??_PutCANTxFifo& (0+255),w,b
  1651  000FDC                     l1898:
  1652                           
  1653                           ;Can_HL.c: 57: if(CANTxFifo.HighIndex==CANTxFifo.LowIndex)
  1654  000FDC  0101               	movlb	1	; () banked
  1655  000FDE  0101               	movlb	1	; () banked
  1656  000FE0  518C               	movf	(_CANTxFifo+140)& (0+255),w,b
  1657  000FE2  0101               	movlb	1	; () banked
  1658  000FE4  EE21  F08D         	lfsr	2,_CANTxFifo+141
  1659  000FE8  62DF               	cpfseq	indf2,c
  1660  000FEA  D008               	goto	l1902
  1661                           
  1662                           ; BSR set to: 1
  1663                           ;Can_HL.c: 58: CANTxFifo.Fifofull=1;
  1664  000FEC  0100               	movlb	0	; () banked
  1665  000FEE  6F7C               	movwf	??_PutCANTxFifo& (0+255),b
  1666  000FF0  0E01               	movlw	1
  1667  000FF2  0101               	movlb	1	; () banked
  1668  000FF4  0101               	movlb	1	; () banked
  1669  000FF6  6F8E               	movwf	(_CANTxFifo+142)& (0+255),b
  1670  000FF8  0100               	movlb	0	; () banked
  1671  000FFA  517C               	movf	??_PutCANTxFifo& (0+255),w,b
  1672  000FFC                     l1902:
  1673                           
  1674                           ;Can_HL.c: 60: INTCONbits.GIE=1;
  1675  000FFC  8EF2               	bsf	intcon,7,c	;volatile
  1676  000FFE  0012               	return	
  1677  001000                     __end_of_PutCANTxFifo:
  1678                           	opt stack 0
  1679                           pclatu	equ	0xFFB
  1680                           pclath	equ	0xFFA
  1681                           tblptru	equ	0xFF8
  1682                           tblptrh	equ	0xFF7
  1683                           tblptrl	equ	0xFF6
  1684                           tablat	equ	0xFF5
  1685                           prodh	equ	0xFF4
  1686                           prodl	equ	0xFF3
  1687                           intcon	equ	0xFF2
  1688                           postinc0	equ	0xFEE
  1689                           fsr0h	equ	0xFEA
  1690                           fsr0l	equ	0xFE9
  1691                           wreg	equ	0xFE8
  1692                           postinc1	equ	0xFE6
  1693                           fsr1h	equ	0xFE2
  1694                           fsr1l	equ	0xFE1
  1695                           bsr	equ	0xFE0
  1696                           indf2	equ	0xFDF
  1697                           postinc2	equ	0xFDE
  1698                           fsr2h	equ	0xFDA
  1699                           fsr2l	equ	0xFD9
  1700                           status	equ	0xFD8
  1701                           
  1702 ;; *************** function _GetCanAdress *****************
  1703 ;; Defined at:
  1704 ;;		line 167 in file "system.c"
  1705 ;; Parameters:    Size  Location     Type
  1706 ;;		None
  1707 ;; Auto vars:     Size  Location     Type
  1708 ;;		None
  1709 ;; Return value:  Size  Location     Type
  1710 ;;                  1    wreg      unsigned char 
  1711 ;; Registers used:
  1712 ;;		wreg, status,2, status,0
  1713 ;; Tracked objects:
  1714 ;;		On entry : 0/0
  1715 ;;		On exit  : 0/0
  1716 ;;		Unchanged: 0/0
  1717 ;; Data sizes:     COMRAM   BANK0   BANK1   BANK2   BANK3   BANK4   BANK5   BANK6   BANK7   BANK8   BANK9  BANK10  BANK1
      +1  BANK12  BANK13  BANK14
  1718 ;;      Params:         0       0       0       0       0       0       0       0       0       0       0       0       
      +0       0       0       0
  1719 ;;      Locals:         0       0       0       0       0       0       0       0       0       0       0       0       
      +0       0       0       0
  1720 ;;      Temps:          0       0       0       0       0       0       0       0       0       0       0       0       
      +0       0       0       0
  1721 ;;      Totals:         0       0       0       0       0       0       0       0       0       0       0       0       
      +0       0       0       0
  1722 ;;Total ram usage:        0 bytes
  1723 ;; Hardware stack levels used:    1
  1724 ;; Hardware stack levels required when called:    4
  1725 ;; This function calls:
  1726 ;;		Nothing
  1727 ;; This function is called by:
  1728 ;;		_main
  1729 ;; This function uses a non-reentrant model
  1730 ;;
  1731                           
  1732                           	psect	text3
  1733  001284                     __ptext3:
  1734                           	opt stack 0
  1735  001284                     _GetCanAdress:
  1736                           	opt stack 26
  1737                           
  1738                           ;system.c: 169: return (PORTA & 0b00000111);
  1739                           
  1740                           ;incstack = 0
  1741  001284  5080               	movf	3968,w,c	;volatile
  1742  001286  0B07               	andlw	7
  1743  001288  0012               	return	
  1744  00128A                     __end_of_GetCanAdress:
  1745                           	opt stack 0
  1746                           pclatu	equ	0xFFB
  1747                           pclath	equ	0xFFA
  1748                           tblptru	equ	0xFF8
  1749                           tblptrh	equ	0xFF7
  1750                           tblptrl	equ	0xFF6
  1751                           tablat	equ	0xFF5
  1752                           prodh	equ	0xFF4
  1753                           prodl	equ	0xFF3
  1754                           intcon	equ	0xFF2
  1755                           postinc0	equ	0xFEE
  1756                           fsr0h	equ	0xFEA
  1757                           fsr0l	equ	0xFE9
  1758                           wreg	equ	0xFE8
  1759                           postinc1	equ	0xFE6
  1760                           fsr1h	equ	0xFE2
  1761                           fsr1l	equ	0xFE1
  1762                           bsr	equ	0xFE0
  1763                           indf2	equ	0xFDF
  1764                           postinc2	equ	0xFDE
  1765                           fsr2h	equ	0xFDA
  1766                           fsr2l	equ	0xFD9
  1767                           status	equ	0xFD8
  1768                           
  1769 ;; *************** function _GetCANTxFifo *****************
  1770 ;; Defined at:
  1771 ;;		line 66 in file "Can_HL.c"
  1772 ;; Parameters:    Size  Location     Type
  1773 ;;		None
  1774 ;; Auto vars:     Size  Location     Type
  1775 ;;  LocalCANTXMs   14   30[BANK0 ] struct CANTxMsg
  1776 ;; Return value:  Size  Location     Type
  1777 ;;                  14   14[BANK0 ] struct CANTxMsg
  1778 ;; Registers used:
  1779 ;;		wreg, fsr0l, fsr0h, fsr1l, fsr1h, fsr2l, fsr2h, status,2, status,0, prodl, prodh
  1780 ;; Tracked objects:
  1781 ;;		On entry : 0/0
  1782 ;;		On exit  : 0/0
  1783 ;;		Unchanged: 0/0
  1784 ;; Data sizes:     COMRAM   BANK0   BANK1   BANK2   BANK3   BANK4   BANK5   BANK6   BANK7   BANK8   BANK9  BANK10  BANK1
      +1  BANK12  BANK13  BANK14
  1785 ;;      Params:         0      14       0       0       0       0       0       0       0       0       0       0       
      +0       0       0       0
  1786 ;;      Locals:         0      14       0       0       0       0       0       0       0       0       0       0       
      +0       0       0       0
  1787 ;;      Temps:          0       2       0       0       0       0       0       0       0       0       0       0       
      +0       0       0       0
  1788 ;;      Totals:         0      30       0       0       0       0       0       0       0       0       0       0       
      +0       0       0       0
  1789 ;;Total ram usage:       30 bytes
  1790 ;; Hardware stack levels used:    1
  1791 ;; Hardware stack levels required when called:    4
  1792 ;; This function calls:
  1793 ;;		Nothing
  1794 ;; This function is called by:
  1795 ;;		_main
  1796 ;; This function uses a non-reentrant model
  1797 ;;
  1798                           
  1799                           	psect	text4
  1800  000B72                     __ptext4:
  1801                           	opt stack 0
  1802  000B72                     _GetCANTxFifo:
  1803                           	opt stack 26
  1804                           
  1805                           ;Can_HL.c: 68: struct CANTxMsg LocalCANTXMsg;
  1806                           ;Can_HL.c: 71: if(!CANTxFifo.FifoEmpty)
  1807                           
  1808                           ;incstack = 0
  1809  000B72  0101               	movlb	1	; () banked
  1810  000B74  0101               	movlb	1	; () banked
  1811  000B76  678F               	tstfsz	(_CANTxFifo+143)& (0+255),b
  1812  000B78  D051               	goto	l1930
  1813                           
  1814                           ; BSR set to: 1
  1815                           ;Can_HL.c: 72: {
  1816                           ;Can_HL.c: 73: INTCONbits.GIE=0;
  1817  000B7A  9EF2               	bcf	intcon,7,c	;volatile
  1818                           
  1819                           ; BSR set to: 1
  1820                           ;Can_HL.c: 75: LocalCANTXMsg=CANTxFifo.CANMsg[CANTxFifo.LowIndex];
  1821  000B7C  0101               	movlb	1	; () banked
  1822  000B7E  0101               	movlb	1	; () banked
  1823  000B80  518C               	movf	(_CANTxFifo+140)& (0+255),w,b
  1824  000B82  0D0E               	mullw	14
  1825  000B84  0E00               	movlw	low _CANTxFifo
  1826  000B86  0100               	movlb	0	; () banked
  1827  000B88  6F7C               	movwf	??_GetCANTxFifo& (0+255),b
  1828  000B8A  0E01               	movlw	high _CANTxFifo
  1829  000B8C  6F7D               	movwf	(??_GetCANTxFifo+1)& (0+255),b
  1830  000B8E  50F3               	movf	prodl,w,c
  1831  000B90  0100               	movlb	0	; () banked
  1832  000B92  277C               	addwf	??_GetCANTxFifo& (0+255),f,b
  1833  000B94  50F4               	movf	prodh,w,c
  1834  000B96  0100               	movlb	0	; () banked
  1835  000B98  237D               	addwfc	(??_GetCANTxFifo+1)& (0+255),f,b
  1836  000B9A  C07C  FFD9         	movff	??_GetCANTxFifo,fsr2l
  1837  000B9E  C07D  FFDA         	movff	??_GetCANTxFifo+1,fsr2h
  1838  000BA2  EE10  F07E         	lfsr	1,GetCANTxFifo@LocalCANTXMsg
  1839  000BA6  0E0E               	movlw	14
  1840  000BA8                     u1141:
  1841  000BA8  CFDE FFE6          	movff	postinc2,postinc1
  1842  000BAC  2EE8               	decfsz	wreg,f,c
  1843  000BAE  D7FC               	goto	u1141
  1844                           
  1845                           ; BSR set to: 0
  1846                           ;Can_HL.c: 76: CANTxFifo.Fifofull=0;
  1847  000BB0  0100               	movlb	0	; () banked
  1848  000BB2  6F7C               	movwf	??_GetCANTxFifo& (0+255),b
  1849  000BB4  0E00               	movlw	0
  1850  000BB6  0101               	movlb	1	; () banked
  1851  000BB8  0101               	movlb	1	; () banked
  1852  000BBA  6F8E               	movwf	(_CANTxFifo+142)& (0+255),b
  1853  000BBC  0100               	movlb	0	; () banked
  1854  000BBE  517C               	movf	??_GetCANTxFifo& (0+255),w,b
  1855                           
  1856                           ; BSR set to: 0
  1857                           ;Can_HL.c: 77: CANTxFifo.LowIndex++;
  1858  000BC0  0101               	movlb	1	; () banked
  1859  000BC2  0101               	movlb	1	; () banked
  1860  000BC4  2B8C               	incf	(_CANTxFifo+140)& (0+255),f,b
  1861                           
  1862                           ; BSR set to: 1
  1863                           ;Can_HL.c: 79: if(CANTxFifo.LowIndex==(10))
  1864  000BC6  0101               	movlb	1	; () banked
  1865  000BC8  0101               	movlb	1	; () banked
  1866  000BCA  518C               	movf	(_CANTxFifo+140)& (0+255),w,b
  1867  000BCC  0A0A               	xorlw	10
  1868  000BCE  A4D8               	btfss	status,2,c
  1869  000BD0  D008               	goto	l1918
  1870                           
  1871                           ; BSR set to: 1
  1872                           ;Can_HL.c: 80: CANTxFifo.LowIndex=0;
  1873  000BD2  0100               	movlb	0	; () banked
  1874  000BD4  6F7C               	movwf	??_GetCANTxFifo& (0+255),b
  1875  000BD6  0E00               	movlw	0
  1876  000BD8  0101               	movlb	1	; () banked
  1877  000BDA  0101               	movlb	1	; () banked
  1878  000BDC  6F8C               	movwf	(_CANTxFifo+140)& (0+255),b
  1879  000BDE  0100               	movlb	0	; () banked
  1880  000BE0  517C               	movf	??_GetCANTxFifo& (0+255),w,b
  1881  000BE2                     l1918:
  1882                           
  1883                           ;Can_HL.c: 82: if(CANTxFifo.HighIndex==CANTxFifo.LowIndex)
  1884  000BE2  0101               	movlb	1	; () banked
  1885  000BE4  0101               	movlb	1	; () banked
  1886  000BE6  518C               	movf	(_CANTxFifo+140)& (0+255),w,b
  1887  000BE8  0101               	movlb	1	; () banked
  1888  000BEA  EE21  F08D         	lfsr	2,_CANTxFifo+141
  1889  000BEE  62DF               	cpfseq	indf2,c
  1890  000BF0  D008               	goto	l1922
  1891                           
  1892                           ; BSR set to: 1
  1893                           ;Can_HL.c: 83: CANTxFifo.FifoEmpty=1;
  1894  000BF2  0100               	movlb	0	; () banked
  1895  000BF4  6F7C               	movwf	??_GetCANTxFifo& (0+255),b
  1896  000BF6  0E01               	movlw	1
  1897  000BF8  0101               	movlb	1	; () banked
  1898  000BFA  0101               	movlb	1	; () banked
  1899  000BFC  6F8F               	movwf	(_CANTxFifo+143)& (0+255),b
  1900  000BFE  0100               	movlb	0	; () banked
  1901  000C00  517C               	movf	??_GetCANTxFifo& (0+255),w,b
  1902  000C02                     l1922:
  1903                           
  1904                           ;Can_HL.c: 85: INTCONbits.GIE=1;
  1905  000C02  8EF2               	bsf	intcon,7,c	;volatile
  1906                           
  1907                           ;Can_HL.c: 86: return LocalCANTXMsg;
  1908  000C04  EE20  F08B         	lfsr	2,GetCANTxFifo@LocalCANTXMsg+13
  1909  000C08  EE00  F07B         	lfsr	0,?_GetCANTxFifo+13
  1910  000C0C  0E0E               	movlw	14
  1911  000C0E                     u1171:
  1912  000C0E  CFDD FFED          	movff	postdec2,postdec0
  1913  000C12  2EE8               	decfsz	wreg,f,c
  1914  000C14  D7FC               	goto	u1171
  1915  000C16  2AE9               	incf	fsr0l,f,c
  1916  000C18  22EA               	addwfc	fsr0h,f,c
  1917  000C1A  0012               	return	
  1918  000C1C                     l1930:
  1919                           
  1920                           ;Can_HL.c: 88: else
  1921                           ;Can_HL.c: 89: {
  1922                           ;Can_HL.c: 90: LocalCANTXMsg.id=0;
  1923  000C1C  0E00               	movlw	0
  1924  000C1E  0100               	movlb	0	; () banked
  1925  000C20  0100               	movlb	0	; () banked
  1926  000C22  6F7E               	movwf	GetCANTxFifo@LocalCANTXMsg& (0+255),b
  1927  000C24  0E00               	movlw	0
  1928  000C26  0100               	movlb	0	; () banked
  1929  000C28  6F7F               	movwf	(GetCANTxFifo@LocalCANTXMsg+1)& (0+255),b
  1930  000C2A  0E00               	movlw	0
  1931  000C2C  0100               	movlb	0	; () banked
  1932  000C2E  6F80               	movwf	(GetCANTxFifo@LocalCANTXMsg+2)& (0+255),b
  1933  000C30  0E00               	movlw	0
  1934  000C32  0100               	movlb	0	; () banked
  1935  000C34  6F81               	movwf	(GetCANTxFifo@LocalCANTXMsg+3)& (0+255),b
  1936                           
  1937                           ; BSR set to: 0
  1938                           ;Can_HL.c: 91: return LocalCANTXMsg;
  1939  000C36  EE20  F08B         	lfsr	2,GetCANTxFifo@LocalCANTXMsg+13
  1940  000C3A  EE00  F07B         	lfsr	0,?_GetCANTxFifo+13
  1941  000C3E  0E0E               	movlw	14
  1942  000C40                     u1181:
  1943  000C40  CFDD FFED          	movff	postdec2,postdec0
  1944  000C44  2EE8               	decfsz	wreg,f,c
  1945  000C46  D7FC               	goto	u1181
  1946  000C48  2AE9               	incf	fsr0l,f,c
  1947  000C4A  22EA               	addwfc	fsr0h,f,c
  1948  000C4C  0012               	return	
  1949  000C4E                     __end_of_GetCANTxFifo:
  1950                           	opt stack 0
  1951                           pclatu	equ	0xFFB
  1952                           pclath	equ	0xFFA
  1953                           tblptru	equ	0xFF8
  1954                           tblptrh	equ	0xFF7
  1955                           tblptrl	equ	0xFF6
  1956                           tablat	equ	0xFF5
  1957                           prodh	equ	0xFF4
  1958                           prodl	equ	0xFF3
  1959                           intcon	equ	0xFF2
  1960                           postinc0	equ	0xFEE
  1961                           postdec0	equ	0xFED
  1962                           fsr0h	equ	0xFEA
  1963                           fsr0l	equ	0xFE9
  1964                           wreg	equ	0xFE8
  1965                           postinc1	equ	0xFE6
  1966                           fsr1h	equ	0xFE2
  1967                           fsr1l	equ	0xFE1
  1968                           bsr	equ	0xFE0
  1969                           indf2	equ	0xFDF
  1970                           postinc2	equ	0xFDE
  1971                           postdec2	equ	0xFDD
  1972                           fsr2h	equ	0xFDA
  1973                           fsr2l	equ	0xFD9
  1974                           status	equ	0xFD8
  1975                           
  1976 ;; *************** function _GetCANRxFifo *****************
  1977 ;; Defined at:
  1978 ;;		line 114 in file "Can_HL.c"
  1979 ;; Parameters:    Size  Location     Type
  1980 ;;		None
  1981 ;; Auto vars:     Size  Location     Type
  1982 ;;  LocalCANRXMs   14   30[BANK0 ] struct CANRxMsg
  1983 ;; Return value:  Size  Location     Type
  1984 ;;                  14   14[BANK0 ] struct CANRxMsg
  1985 ;; Registers used:
  1986 ;;		wreg, fsr0l, fsr0h, fsr1l, fsr1h, fsr2l, fsr2h, status,2, status,0, prodl, prodh
  1987 ;; Tracked objects:
  1988 ;;		On entry : 0/0
  1989 ;;		On exit  : 0/0
  1990 ;;		Unchanged: 0/0
  1991 ;; Data sizes:     COMRAM   BANK0   BANK1   BANK2   BANK3   BANK4   BANK5   BANK6   BANK7   BANK8   BANK9  BANK10  BANK1
      +1  BANK12  BANK13  BANK14
  1992 ;;      Params:         0      14       0       0       0       0       0       0       0       0       0       0       
      +0       0       0       0
  1993 ;;      Locals:         0      14       0       0       0       0       0       0       0       0       0       0       
      +0       0       0       0
  1994 ;;      Temps:          0       2       0       0       0       0       0       0       0       0       0       0       
      +0       0       0       0
  1995 ;;      Totals:         0      30       0       0       0       0       0       0       0       0       0       0       
      +0       0       0       0
  1996 ;;Total ram usage:       30 bytes
  1997 ;; Hardware stack levels used:    1
  1998 ;; Hardware stack levels required when called:    4
  1999 ;; This function calls:
  2000 ;;		Nothing
  2001 ;; This function is called by:
  2002 ;;		_main
  2003 ;; This function uses a non-reentrant model
  2004 ;;
  2005                           
  2006                           	psect	text5
  2007  000C4E                     __ptext5:
  2008                           	opt stack 0
  2009  000C4E                     _GetCANRxFifo:
  2010                           	opt stack 26
  2011                           
  2012                           ;Can_HL.c: 116: struct CANRxMsg LocalCANRXMsg;
  2013                           ;Can_HL.c: 119: if(!CANRxFifo.FifoEmpty)
  2014                           
  2015                           ;incstack = 0
  2016  000C4E  0102               	movlb	2	; () banked
  2017  000C50  0102               	movlb	2	; () banked
  2018  000C52  678F               	tstfsz	(_CANRxFifo+143)& (0+255),b
  2019  000C54  D051               	goto	l1878
  2020                           
  2021                           ; BSR set to: 2
  2022                           ;Can_HL.c: 120: {
  2023                           ;Can_HL.c: 121: INTCONbits.GIE=0;
  2024  000C56  9EF2               	bcf	intcon,7,c	;volatile
  2025                           
  2026                           ; BSR set to: 2
  2027                           ;Can_HL.c: 123: LocalCANRXMsg=CANRxFifo.CANMsg[CANRxFifo.LowIndex];
  2028  000C58  0102               	movlb	2	; () banked
  2029  000C5A  0102               	movlb	2	; () banked
  2030  000C5C  518C               	movf	(_CANRxFifo+140)& (0+255),w,b
  2031  000C5E  0D0E               	mullw	14
  2032  000C60  0E00               	movlw	low _CANRxFifo
  2033  000C62  0100               	movlb	0	; () banked
  2034  000C64  6F7C               	movwf	??_GetCANRxFifo& (0+255),b
  2035  000C66  0E02               	movlw	high _CANRxFifo
  2036  000C68  6F7D               	movwf	(??_GetCANRxFifo+1)& (0+255),b
  2037  000C6A  50F3               	movf	prodl,w,c
  2038  000C6C  0100               	movlb	0	; () banked
  2039  000C6E  277C               	addwf	??_GetCANRxFifo& (0+255),f,b
  2040  000C70  50F4               	movf	prodh,w,c
  2041  000C72  0100               	movlb	0	; () banked
  2042  000C74  237D               	addwfc	(??_GetCANRxFifo+1)& (0+255),f,b
  2043  000C76  C07C  FFD9         	movff	??_GetCANRxFifo,fsr2l
  2044  000C7A  C07D  FFDA         	movff	??_GetCANRxFifo+1,fsr2h
  2045  000C7E  EE10  F07E         	lfsr	1,GetCANRxFifo@LocalCANRXMsg
  2046  000C82  0E0E               	movlw	14
  2047  000C84                     u1041:
  2048  000C84  CFDE FFE6          	movff	postinc2,postinc1
  2049  000C88  2EE8               	decfsz	wreg,f,c
  2050  000C8A  D7FC               	goto	u1041
  2051                           
  2052                           ; BSR set to: 0
  2053                           ;Can_HL.c: 124: CANRxFifo.Fifofull=0;
  2054  000C8C  0100               	movlb	0	; () banked
  2055  000C8E  6F7C               	movwf	??_GetCANRxFifo& (0+255),b
  2056  000C90  0E00               	movlw	0
  2057  000C92  0102               	movlb	2	; () banked
  2058  000C94  0102               	movlb	2	; () banked
  2059  000C96  6F8E               	movwf	(_CANRxFifo+142)& (0+255),b
  2060  000C98  0100               	movlb	0	; () banked
  2061  000C9A  517C               	movf	??_GetCANRxFifo& (0+255),w,b
  2062                           
  2063                           ; BSR set to: 0
  2064                           ;Can_HL.c: 125: CANRxFifo.LowIndex++;
  2065  000C9C  0102               	movlb	2	; () banked
  2066  000C9E  0102               	movlb	2	; () banked
  2067  000CA0  2B8C               	incf	(_CANRxFifo+140)& (0+255),f,b
  2068                           
  2069                           ; BSR set to: 2
  2070                           ;Can_HL.c: 127: if(CANRxFifo.LowIndex==(10))
  2071  000CA2  0102               	movlb	2	; () banked
  2072  000CA4  0102               	movlb	2	; () banked
  2073  000CA6  518C               	movf	(_CANRxFifo+140)& (0+255),w,b
  2074  000CA8  0A0A               	xorlw	10
  2075  000CAA  A4D8               	btfss	status,2,c
  2076  000CAC  D008               	goto	l1866
  2077                           
  2078                           ; BSR set to: 2
  2079                           ;Can_HL.c: 128: CANRxFifo.LowIndex=0;
  2080  000CAE  0100               	movlb	0	; () banked
  2081  000CB0  6F7C               	movwf	??_GetCANRxFifo& (0+255),b
  2082  000CB2  0E00               	movlw	0
  2083  000CB4  0102               	movlb	2	; () banked
  2084  000CB6  0102               	movlb	2	; () banked
  2085  000CB8  6F8C               	movwf	(_CANRxFifo+140)& (0+255),b
  2086  000CBA  0100               	movlb	0	; () banked
  2087  000CBC  517C               	movf	??_GetCANRxFifo& (0+255),w,b
  2088  000CBE                     l1866:
  2089                           
  2090                           ;Can_HL.c: 130: if(CANRxFifo.HighIndex==CANRxFifo.LowIndex)
  2091  000CBE  0102               	movlb	2	; () banked
  2092  000CC0  0102               	movlb	2	; () banked
  2093  000CC2  518C               	movf	(_CANRxFifo+140)& (0+255),w,b
  2094  000CC4  0102               	movlb	2	; () banked
  2095  000CC6  EE22  F08D         	lfsr	2,_CANRxFifo+141
  2096  000CCA  62DF               	cpfseq	indf2,c
  2097  000CCC  D008               	goto	l1870
  2098                           
  2099                           ; BSR set to: 2
  2100                           ;Can_HL.c: 131: CANRxFifo.FifoEmpty=1;
  2101  000CCE  0100               	movlb	0	; () banked
  2102  000CD0  6F7C               	movwf	??_GetCANRxFifo& (0+255),b
  2103  000CD2  0E01               	movlw	1
  2104  000CD4  0102               	movlb	2	; () banked
  2105  000CD6  0102               	movlb	2	; () banked
  2106  000CD8  6F8F               	movwf	(_CANRxFifo+143)& (0+255),b
  2107  000CDA  0100               	movlb	0	; () banked
  2108  000CDC  517C               	movf	??_GetCANRxFifo& (0+255),w,b
  2109  000CDE                     l1870:
  2110                           
  2111                           ;Can_HL.c: 133: INTCONbits.GIE=1;
  2112  000CDE  8EF2               	bsf	intcon,7,c	;volatile
  2113                           
  2114                           ;Can_HL.c: 134: return LocalCANRXMsg;
  2115  000CE0  EE20  F08B         	lfsr	2,GetCANRxFifo@LocalCANRXMsg+13
  2116  000CE4  EE00  F07B         	lfsr	0,?_GetCANRxFifo+13
  2117  000CE8  0E0E               	movlw	14
  2118  000CEA                     u1071:
  2119  000CEA  CFDD FFED          	movff	postdec2,postdec0
  2120  000CEE  2EE8               	decfsz	wreg,f,c
  2121  000CF0  D7FC               	goto	u1071
  2122  000CF2  2AE9               	incf	fsr0l,f,c
  2123  000CF4  22EA               	addwfc	fsr0h,f,c
  2124  000CF6  0012               	return	
  2125  000CF8                     l1878:
  2126                           
  2127                           ;Can_HL.c: 136: else
  2128                           ;Can_HL.c: 137: {
  2129                           ;Can_HL.c: 138: LocalCANRXMsg.id=0;
  2130  000CF8  0E00               	movlw	0
  2131  000CFA  0100               	movlb	0	; () banked
  2132  000CFC  0100               	movlb	0	; () banked
  2133  000CFE  6F7E               	movwf	GetCANRxFifo@LocalCANRXMsg& (0+255),b
  2134  000D00  0E00               	movlw	0
  2135  000D02  0100               	movlb	0	; () banked
  2136  000D04  6F7F               	movwf	(GetCANRxFifo@LocalCANRXMsg+1)& (0+255),b
  2137  000D06  0E00               	movlw	0
  2138  000D08  0100               	movlb	0	; () banked
  2139  000D0A  6F80               	movwf	(GetCANRxFifo@LocalCANRXMsg+2)& (0+255),b
  2140  000D0C  0E00               	movlw	0
  2141  000D0E  0100               	movlb	0	; () banked
  2142  000D10  6F81               	movwf	(GetCANRxFifo@LocalCANRXMsg+3)& (0+255),b
  2143                           
  2144                           ; BSR set to: 0
  2145                           ;Can_HL.c: 139: return LocalCANRXMsg;
  2146  000D12  EE20  F08B         	lfsr	2,GetCANRxFifo@LocalCANRXMsg+13
  2147  000D16  EE00  F07B         	lfsr	0,?_GetCANRxFifo+13
  2148  000D1A  0E0E               	movlw	14
  2149  000D1C                     u1081:
  2150  000D1C  CFDD FFED          	movff	postdec2,postdec0
  2151  000D20  2EE8               	decfsz	wreg,f,c
  2152  000D22  D7FC               	goto	u1081
  2153  000D24  2AE9               	incf	fsr0l,f,c
  2154  000D26  22EA               	addwfc	fsr0h,f,c
  2155  000D28  0012               	return	
  2156  000D2A                     __end_of_GetCANRxFifo:
  2157                           	opt stack 0
  2158                           pclatu	equ	0xFFB
  2159                           pclath	equ	0xFFA
  2160                           tblptru	equ	0xFF8
  2161                           tblptrh	equ	0xFF7
  2162                           tblptrl	equ	0xFF6
  2163                           tablat	equ	0xFF5
  2164                           prodh	equ	0xFF4
  2165                           prodl	equ	0xFF3
  2166                           intcon	equ	0xFF2
  2167                           postinc0	equ	0xFEE
  2168                           postdec0	equ	0xFED
  2169                           fsr0h	equ	0xFEA
  2170                           fsr0l	equ	0xFE9
  2171                           wreg	equ	0xFE8
  2172                           postinc1	equ	0xFE6
  2173                           fsr1h	equ	0xFE2
  2174                           fsr1l	equ	0xFE1
  2175                           bsr	equ	0xFE0
  2176                           indf2	equ	0xFDF
  2177                           postinc2	equ	0xFDE
  2178                           postdec2	equ	0xFDD
  2179                           fsr2h	equ	0xFDA
  2180                           fsr2l	equ	0xFD9
  2181                           status	equ	0xFD8
  2182                           
  2183 ;; *************** function _ECANSendMessage *****************
  2184 ;; Defined at:
  2185 ;;		line 610 in file "ECANPoll.c"
  2186 ;; Parameters:    Size  Location     Type
  2187 ;;  id              4   25[BANK0 ] unsigned long 
  2188 ;;  data            2   29[BANK0 ] PTR unsigned char 
  2189 ;;		 -> main@TempCANTxMsg(14), 
  2190 ;;  dataLen         1   31[BANK0 ] unsigned char 
  2191 ;;  msgFlags        1   32[BANK0 ] enum E19280
  2192 ;; Auto vars:     Size  Location     Type
  2193 ;;  pb             18   34[BANK0 ] PTR unsigned char [9]
  2194 ;;		 -> TXB2CON(1), TXB1CON(1), TXB0CON(1), 
  2195 ;;  ptr             2   57[BANK0 ] PTR unsigned char 
  2196 ;;		 -> TXB2CON(1), TXB1CON(1), TXB0CON(1), 
  2197 ;;  tempPtr         2   53[BANK0 ] PTR unsigned char 
  2198 ;;		 -> TXB2CON(1), TXB1CON(1), TXB0CON(1), 
  2199 ;;  i               1   56[BANK0 ] unsigned char 
  2200 ;;  temp            1   55[BANK0 ] unsigned char 
  2201 ;;  j               1   52[BANK0 ] unsigned char 
  2202 ;; Return value:  Size  Location     Type
  2203 ;;                  1    wreg      enum E18559
  2204 ;; Registers used:
  2205 ;;		wreg, fsr1l, fsr1h, fsr2l, fsr2h, status,2, status,0, prodl, prodh, cstack
  2206 ;; Tracked objects:
  2207 ;;		On entry : 0/0
  2208 ;;		On exit  : 0/0
  2209 ;;		Unchanged: 0/0
  2210 ;; Data sizes:     COMRAM   BANK0   BANK1   BANK2   BANK3   BANK4   BANK5   BANK6   BANK7   BANK8   BANK9  BANK10  BANK1
      +1  BANK12  BANK13  BANK14
  2211 ;;      Params:         0       8       0       0       0       0       0       0       0       0       0       0       
      +0       0       0       0
  2212 ;;      Locals:         0      25       0       0       0       0       0       0       0       0       0       0       
      +0       0       0       0
  2213 ;;      Temps:          0       1       0       0       0       0       0       0       0       0       0       0       
      +0       0       0       0
  2214 ;;      Totals:         0      34       0       0       0       0       0       0       0       0       0       0       
      +0       0       0       0
  2215 ;;Total ram usage:       34 bytes
  2216 ;; Hardware stack levels used:    1
  2217 ;; Hardware stack levels required when called:    5
  2218 ;; This function calls:
  2219 ;;		__CANIDToRegs
  2220 ;; This function is called by:
  2221 ;;		_main
  2222 ;; This function uses a non-reentrant model
  2223 ;;
  2224                           
  2225                           	psect	text6
  2226  0006C0                     __ptext6:
  2227                           	opt stack 0
  2228  0006C0                     _ECANSendMessage:
  2229                           	opt stack 25
  2230                           
  2231                           ;ECANPoll.c: 625: BYTE i,j;
  2232                           ;ECANPoll.c: 626: BYTE *ptr, *tempPtr;
  2233                           ;ECANPoll.c: 627: BYTE* pb[9];
  2234                           ;ECANPoll.c: 628: BYTE temp;
  2235                           ;ECANPoll.c: 638: pb[0]=(BYTE*)&TXB0CON;
  2236                           
  2237                           ;incstack = 0
  2238  0006C0  010F               	movlb	15	; () banked
  2239  0006C2  0E0F               	movlw	15	;volatile
  2240  0006C4  0100               	movlb	0	; () banked
  2241  0006C6  0100               	movlb	0	; () banked
  2242  0006C8  6F83               	movwf	(ECANSendMessage@pb+1)& (0+255),b
  2243  0006CA  010F               	movlb	15	; () banked
  2244  0006CC  0E20               	movlw	32	;volatile
  2245  0006CE  0100               	movlb	0	; () banked
  2246  0006D0  0100               	movlb	0	; () banked
  2247  0006D2  6F82               	movwf	ECANSendMessage@pb& (0+255),b
  2248                           
  2249                           ;ECANPoll.c: 639: pb[1]=(BYTE*)&TXB1CON;
  2250  0006D4  010F               	movlb	15	; () banked
  2251  0006D6  0E0F               	movlw	15	;volatile
  2252  0006D8  0100               	movlb	0	; () banked
  2253  0006DA  0100               	movlb	0	; () banked
  2254  0006DC  6F85               	movwf	(ECANSendMessage@pb+3)& (0+255),b
  2255  0006DE  010F               	movlb	15	; () banked
  2256  0006E0  0E10               	movlw	16	;volatile
  2257  0006E2  0100               	movlb	0	; () banked
  2258  0006E4  0100               	movlb	0	; () banked
  2259  0006E6  6F84               	movwf	(ECANSendMessage@pb+2)& (0+255),b
  2260                           
  2261                           ;ECANPoll.c: 640: pb[2]=(BYTE*)&TXB2CON;
  2262  0006E8  010F               	movlb	15	; () banked
  2263  0006EA  0E0F               	movlw	15	;volatile
  2264  0006EC  0100               	movlb	0	; () banked
  2265  0006EE  0100               	movlb	0	; () banked
  2266  0006F0  6F87               	movwf	(ECANSendMessage@pb+5)& (0+255),b
  2267  0006F2  010F               	movlb	15	; () banked
  2268  0006F4  0E00               	movlw	0	;volatile
  2269  0006F6  0100               	movlb	0	; () banked
  2270  0006F8  0100               	movlb	0	; () banked
  2271  0006FA  6F86               	movwf	(ECANSendMessage@pb+4)& (0+255),b
  2272                           
  2273                           ; BSR set to: 0
  2274                           ;ECANPoll.c: 670: for ( i = 0; i < 2; i++ )
  2275  0006FC  0100               	movlb	0	; () banked
  2276  0006FE  6F81               	movwf	??_ECANSendMessage& (0+255),b
  2277  000700  0E00               	movlw	0
  2278  000702  0100               	movlb	0	; () banked
  2279  000704  0100               	movlb	0	; () banked
  2280  000706  6F98               	movwf	ECANSendMessage@i& (0+255),b
  2281  000708  0100               	movlb	0	; () banked
  2282  00070A  5181               	movf	??_ECANSendMessage& (0+255),w,b
  2283                           
  2284                           ; BSR set to: 0
  2285  00070C  0E01               	movlw	1
  2286  00070E  0100               	movlb	0	; () banked
  2287  000710  0100               	movlb	0	; () banked
  2288  000712  6598               	cpfsgt	ECANSendMessage@i& (0+255),b
  2289  000714  D001               	goto	l1944
  2290  000716  0012               	return	
  2291  000718                     l1944:
  2292                           
  2293                           ; BSR set to: 0
  2294                           ;ECANPoll.c: 685: {
  2295                           ;ECANPoll.c: 690: ptr = pb[i];
  2296  000718  0100               	movlb	0	; () banked
  2297  00071A  0100               	movlb	0	; () banked
  2298  00071C  5198               	movf	ECANSendMessage@i& (0+255),w,b
  2299  00071E  0D02               	mullw	2
  2300  000720  0100               	movlb	0	; () banked
  2301  000722  0E82               	movlw	low ECANSendMessage@pb
  2302  000724  24F3               	addwf	prodl,w,c
  2303  000726  6ED9               	movwf	fsr2l,c
  2304  000728  0100               	movlb	0	; () banked
  2305  00072A  0E00               	movlw	high ECANSendMessage@pb
  2306  00072C  20F4               	addwfc	prodh,w,c
  2307  00072E  6EDA               	movwf	fsr2h,c
  2308  000730  0100               	movlb	0	; () banked
  2309  000732  CFDE F099          	movff	postinc2,ECANSendMessage@ptr
  2310  000736  0100               	movlb	0	; () banked
  2311  000738  CFDD F09A          	movff	postdec2,ECANSendMessage@ptr+1
  2312                           
  2313                           ; BSR set to: 0
  2314                           ;ECANPoll.c: 691: tempPtr = ptr;
  2315  00073C  0100               	movlb	0	; () banked
  2316  00073E  0100               	movlb	0	; () banked
  2317  000740  C09A  F096         	movff	ECANSendMessage@ptr+1,ECANSendMessage@tempPtr+1
  2318  000744  0100               	movlb	0	; () banked
  2319  000746  0100               	movlb	0	; () banked
  2320  000748  C099  F095         	movff	ECANSendMessage@ptr,ECANSendMessage@tempPtr
  2321                           
  2322                           ; BSR set to: 0
  2323                           ;ECANPoll.c: 717: if ( !(*ptr & 0x08) )
  2324  00074C  C099  FFD9         	movff	ECANSendMessage@ptr,fsr2l
  2325  000750  C09A  FFDA         	movff	ECANSendMessage@ptr+1,fsr2h
  2326  000754  50DF               	movf	indf2,w,c
  2327  000756  0100               	movlb	0	; () banked
  2328  000758  6F81               	movwf	??_ECANSendMessage& (0+255),b
  2329  00075A  0100               	movlb	0	; () banked
  2330  00075C  B781               	btfsc	??_ECANSendMessage& (0+255),3,b
  2331  00075E  D093               	goto	l1988
  2332                           
  2333                           ; BSR set to: 0
  2334                           ;ECANPoll.c: 718: {
  2335                           ;ECANPoll.c: 720: *ptr &= ~ECAN_TX_PRIORITY_BITS;
  2336  000760  C099  FFD9         	movff	ECANSendMessage@ptr,fsr2l
  2337  000764  C09A  FFDA         	movff	ECANSendMessage@ptr+1,fsr2h
  2338  000768  0EFC               	movlw	252
  2339  00076A  16DF               	andwf	indf2,f,c
  2340                           
  2341                           ; BSR set to: 0
  2342                           ;ECANPoll.c: 721: *ptr |= msgFlags & ECAN_TX_PRIORITY_BITS;
  2343  00076C  C080  F081         	movff	ECANSendMessage@msgFlags,??_ECANSendMessage
  2344  000770  0E03               	movlw	3
  2345  000772  0100               	movlb	0	; () banked
  2346  000774  1781               	andwf	??_ECANSendMessage& (0+255),f,b
  2347  000776  C099  FFD9         	movff	ECANSendMessage@ptr,fsr2l
  2348  00077A  C09A  FFDA         	movff	ECANSendMessage@ptr+1,fsr2h
  2349  00077E  0100               	movlb	0	; () banked
  2350  000780  5181               	movf	??_ECANSendMessage& (0+255),w,b
  2351  000782  12DF               	iorwf	indf2,f,c
  2352                           
  2353                           ; BSR set to: 0
  2354                           ;ECANPoll.c: 724: if ( msgFlags & ECAN_TX_RTR_BIT )
  2355  000784  0100               	movlb	0	; () banked
  2356  000786  0100               	movlb	0	; () banked
  2357  000788  AD80               	btfss	ECANSendMessage@msgFlags& (0+255),6,b
  2358  00078A  D008               	goto	l323
  2359                           
  2360                           ; BSR set to: 0
  2361                           ;ECANPoll.c: 725: temp = 0x40 | dataLen;
  2362  00078C  0100               	movlb	0	; () banked
  2363  00078E  0100               	movlb	0	; () banked
  2364  000790  517F               	movf	ECANSendMessage@dataLen& (0+255),w,b
  2365  000792  0940               	iorlw	64
  2366  000794  0100               	movlb	0	; () banked
  2367  000796  0100               	movlb	0	; () banked
  2368  000798  6F97               	movwf	ECANSendMessage@temp& (0+255),b
  2369  00079A  D002               	goto	l1958
  2370  00079C                     l323:
  2371                           
  2372                           ; BSR set to: 0
  2373                           ;ECANPoll.c: 726: else
  2374                           ;ECANPoll.c: 727: temp = dataLen;
  2375  00079C  C07F  F097         	movff	ECANSendMessage@dataLen,ECANSendMessage@temp
  2376  0007A0                     l1958:
  2377                           
  2378                           ; BSR set to: 0
  2379                           ;ECANPoll.c: 729: *(ptr+5) = temp;
  2380  0007A0  0100               	movlb	0	; () banked
  2381  0007A2  EE20 F005          	lfsr	2,5
  2382  0007A6  0100               	movlb	0	; () banked
  2383  0007A8  5199               	movf	ECANSendMessage@ptr& (0+255),w,b
  2384  0007AA  26D9               	addwf	fsr2l,f,c
  2385  0007AC  0100               	movlb	0	; () banked
  2386  0007AE  519A               	movf	(ECANSendMessage@ptr+1)& (0+255),w,b
  2387  0007B0  22DA               	addwfc	fsr2h,f,c
  2388  0007B2  0100               	movlb	0	; () banked
  2389  0007B4  C097  FFDF         	movff	ECANSendMessage@temp,indf2
  2390                           
  2391                           ; BSR set to: 0
  2392                           ;ECANPoll.c: 732: if ( msgFlags & ECAN_TX_FRAME_BIT )
  2393  0007B8  0100               	movlb	0	; () banked
  2394  0007BA  0100               	movlb	0	; () banked
  2395  0007BC  AB80               	btfss	ECANSendMessage@msgFlags& (0+255),5,b
  2396  0007BE  D004               	goto	l1964
  2397                           
  2398                           ; BSR set to: 0
  2399                           ;ECANPoll.c: 733: temp = 1;
  2400  0007C0  0100               	movlb	0	; () banked
  2401  0007C2  6F81               	movwf	??_ECANSendMessage& (0+255),b
  2402  0007C4  0E01               	movlw	1
  2403  0007C6  D003               	goto	L1
  2404  0007C8                     l1964:
  2405                           
  2406                           ; BSR set to: 0
  2407                           ;ECANPoll.c: 735: else
  2408                           ;ECANPoll.c: 736: temp = 0;
  2409  0007C8  0100               	movlb	0	; () banked
  2410  0007CA  6F81               	movwf	??_ECANSendMessage& (0+255),b
  2411  0007CC  0E00               	movlw	0
  2412  0007CE                     L1:
  2413  0007CE  0100               	movlb	0	; () banked
  2414  0007D0  0100               	movlb	0	; () banked
  2415  0007D2  6F97               	movwf	ECANSendMessage@temp& (0+255),b
  2416  0007D4  0100               	movlb	0	; () banked
  2417  0007D6  5181               	movf	??_ECANSendMessage& (0+255),w,b
  2418                           
  2419                           ; BSR set to: 0
  2420                           ;ECANPoll.c: 739: _CANIDToRegs((BYTE*)(ptr+1), id, temp);
  2421                           
  2422                           ; BSR set to: 0
  2423  0007D8  0E01               	movlw	1
  2424  0007DA  0100               	movlb	0	; () banked
  2425  0007DC  0100               	movlb	0	; () banked
  2426  0007DE  2599               	addwf	ECANSendMessage@ptr& (0+255),w,b
  2427  0007E0  0100               	movlb	0	; () banked
  2428  0007E2  0100               	movlb	0	; () banked
  2429  0007E4  6F6E               	movwf	__CANIDToRegs@ptr& (0+255),b
  2430  0007E6  0E00               	movlw	0
  2431  0007E8  0100               	movlb	0	; () banked
  2432  0007EA  0100               	movlb	0	; () banked
  2433  0007EC  219A               	addwfc	(ECANSendMessage@ptr+1)& (0+255),w,b
  2434  0007EE  0100               	movlb	0	; () banked
  2435  0007F0  6F6F               	movwf	(__CANIDToRegs@ptr+1)& (0+255),b
  2436  0007F2  C079  F070         	movff	ECANSendMessage@id,__CANIDToRegs@val
  2437  0007F6  C07A  F071         	movff	ECANSendMessage@id+1,__CANIDToRegs@val+1
  2438  0007FA  C07B  F072         	movff	ECANSendMessage@id+2,__CANIDToRegs@val+2
  2439  0007FE  C07C  F073         	movff	ECANSendMessage@id+3,__CANIDToRegs@val+3
  2440  000802  C097  F074         	movff	ECANSendMessage@temp,__CANIDToRegs@type
  2441  000806  EC70  F002         	call	__CANIDToRegs	;wreg free
  2442                           
  2443                           ;ECANPoll.c: 742: ptr += 6;
  2444  00080A  0E06               	movlw	6
  2445  00080C  0100               	movlb	0	; () banked
  2446  00080E  0100               	movlb	0	; () banked
  2447  000810  2799               	addwf	ECANSendMessage@ptr& (0+255),f,b
  2448  000812  0E00               	movlw	0
  2449  000814  0100               	movlb	0	; () banked
  2450  000816  239A               	addwfc	(ECANSendMessage@ptr+1)& (0+255),f,b
  2451                           
  2452                           ; BSR set to: 0
  2453                           ;ECANPoll.c: 744: for ( j = 0 ; j < dataLen; j++ )
  2454  000818  0100               	movlb	0	; () banked
  2455  00081A  6F81               	movwf	??_ECANSendMessage& (0+255),b
  2456  00081C  0E00               	movlw	0
  2457  00081E  0100               	movlb	0	; () banked
  2458  000820  0100               	movlb	0	; () banked
  2459  000822  6F94               	movwf	ECANSendMessage@j& (0+255),b
  2460  000824  0100               	movlb	0	; () banked
  2461  000826  5181               	movf	??_ECANSendMessage& (0+255),w,b
  2462  000828  D015               	goto	l1980
  2463  00082A                     l1972:
  2464                           
  2465                           ; BSR set to: 0
  2466                           ;ECANPoll.c: 745: *ptr++ = *data++;
  2467  00082A  C07D  FFD9         	movff	ECANSendMessage@data,fsr2l
  2468  00082E  C07E  FFDA         	movff	ECANSendMessage@data+1,fsr2h
  2469  000832  C099  FFE1         	movff	ECANSendMessage@ptr,fsr1l
  2470  000836  C09A  FFE2         	movff	ECANSendMessage@ptr+1,fsr1h
  2471  00083A  CFDF FFE7          	movff	indf2,indf1
  2472                           
  2473                           ; BSR set to: 0
  2474  00083E  0100               	movlb	0	; () banked
  2475  000840  0100               	movlb	0	; () banked
  2476  000842  4B7D               	infsnz	ECANSendMessage@data& (0+255),f,b
  2477  000844  2B7E               	incf	(ECANSendMessage@data+1)& (0+255),f,b
  2478                           
  2479                           ; BSR set to: 0
  2480  000846  0100               	movlb	0	; () banked
  2481  000848  0100               	movlb	0	; () banked
  2482  00084A  4B99               	infsnz	ECANSendMessage@ptr& (0+255),f,b
  2483  00084C  2B9A               	incf	(ECANSendMessage@ptr+1)& (0+255),f,b
  2484                           
  2485                           ; BSR set to: 0
  2486  00084E  0100               	movlb	0	; () banked
  2487  000850  0100               	movlb	0	; () banked
  2488  000852  2B94               	incf	ECANSendMessage@j& (0+255),f,b
  2489  000854                     l1980:
  2490                           
  2491                           ; BSR set to: 0
  2492  000854  0100               	movlb	0	; () banked
  2493  000856  0100               	movlb	0	; () banked
  2494  000858  517F               	movf	ECANSendMessage@dataLen& (0+255),w,b
  2495  00085A  0100               	movlb	0	; () banked
  2496  00085C  0100               	movlb	0	; () banked
  2497  00085E  5D94               	subwf	ECANSendMessage@j& (0+255),w,b
  2498  000860  A0D8               	btfss	status,0,c
  2499  000862  D7E3               	goto	l1972
  2500                           
  2501                           ; BSR set to: 0
  2502                           ;ECANPoll.c: 749: if ( !(*tempPtr & 0x04) )
  2503                           
  2504                           ; BSR set to: 0
  2505  000864  C095  FFD9         	movff	ECANSendMessage@tempPtr,fsr2l
  2506  000868  C096  FFDA         	movff	ECANSendMessage@tempPtr+1,fsr2h
  2507  00086C  50DF               	movf	indf2,w,c
  2508  00086E  0100               	movlb	0	; () banked
  2509  000870  6F81               	movwf	??_ECANSendMessage& (0+255),b
  2510  000872  0100               	movlb	0	; () banked
  2511  000874  B581               	btfsc	??_ECANSendMessage& (0+255),2,b
  2512  000876  0012               	return	
  2513                           
  2514                           ; BSR set to: 0
  2515                           ;ECANPoll.c: 750: *tempPtr |= 0x08;
  2516  000878  C095  FFD9         	movff	ECANSendMessage@tempPtr,fsr2l
  2517  00087C  C096  FFDA         	movff	ECANSendMessage@tempPtr+1,fsr2h
  2518  000880  0E00               	movlw	0
  2519  000882  86DB               	bsf	plusw2,3,c
  2520  000884  0012               	return	
  2521  000886                     l1988:
  2522                           
  2523                           ; BSR set to: 0
  2524  000886  0100               	movlb	0	; () banked
  2525  000888  0100               	movlb	0	; () banked
  2526  00088A  2B98               	incf	ECANSendMessage@i& (0+255),f,b
  2527                           
  2528                           ; BSR set to: 0
  2529  00088C  0E01               	movlw	1
  2530  00088E  0100               	movlb	0	; () banked
  2531  000890  0100               	movlb	0	; () banked
  2532  000892  6598               	cpfsgt	ECANSendMessage@i& (0+255),b
  2533  000894  D741               	goto	l1944
  2534  000896  0012               	return	
  2535  000898                     __end_of_ECANSendMessage:
  2536                           	opt stack 0
  2537                           pclatu	equ	0xFFB
  2538                           pclath	equ	0xFFA
  2539                           tblptru	equ	0xFF8
  2540                           tblptrh	equ	0xFF7
  2541                           tblptrl	equ	0xFF6
  2542                           tablat	equ	0xFF5
  2543                           prodh	equ	0xFF4
  2544                           prodl	equ	0xFF3
  2545                           intcon	equ	0xFF2
  2546                           postinc0	equ	0xFEE
  2547                           postdec0	equ	0xFED
  2548                           fsr0h	equ	0xFEA
  2549                           fsr0l	equ	0xFE9
  2550                           wreg	equ	0xFE8
  2551                           indf1	equ	0xFE7
  2552                           postinc1	equ	0xFE6
  2553                           fsr1h	equ	0xFE2
  2554                           fsr1l	equ	0xFE1
  2555                           bsr	equ	0xFE0
  2556                           indf2	equ	0xFDF
  2557                           postinc2	equ	0xFDE
  2558                           postdec2	equ	0xFDD
  2559                           plusw2	equ	0xFDB
  2560                           fsr2h	equ	0xFDA
  2561                           fsr2l	equ	0xFD9
  2562                           status	equ	0xFD8
  2563                           
  2564 ;; *************** function __CANIDToRegs *****************
  2565 ;; Defined at:
  2566 ;;		line 1097 in file "ECANPoll.c"
  2567 ;; Parameters:    Size  Location     Type
  2568 ;;  ptr             2   14[BANK0 ] PTR unsigned char 
  2569 ;;		 -> TXB2CON(1), TXB1CON(1), TXB0CON(1), 
  2570 ;;  val             4   16[BANK0 ] unsigned long 
  2571 ;;  type            1   20[BANK0 ] unsigned char 
  2572 ;; Auto vars:     Size  Location     Type
  2573 ;;  Value           2   23[BANK0 ] PTR struct _CAN_MESSAGE_
  2574 ;;		 -> _CANIDToRegs@val(4), 
  2575 ;; Return value:  Size  Location     Type
  2576 ;;		None               void
  2577 ;; Registers used:
  2578 ;;		wreg, fsr1l, fsr1h, fsr2l, fsr2h, status,2, status,0
  2579 ;; Tracked objects:
  2580 ;;		On entry : 0/0
  2581 ;;		On exit  : 0/0
  2582 ;;		Unchanged: 0/0
  2583 ;; Data sizes:     COMRAM   BANK0   BANK1   BANK2   BANK3   BANK4   BANK5   BANK6   BANK7   BANK8   BANK9  BANK10  BANK1
      +1  BANK12  BANK13  BANK14
  2584 ;;      Params:         0       7       0       0       0       0       0       0       0       0       0       0       
      +0       0       0       0
  2585 ;;      Locals:         0       2       0       0       0       0       0       0       0       0       0       0       
      +0       0       0       0
  2586 ;;      Temps:          0       2       0       0       0       0       0       0       0       0       0       0       
      +0       0       0       0
  2587 ;;      Totals:         0      11       0       0       0       0       0       0       0       0       0       0       
      +0       0       0       0
  2588 ;;Total ram usage:       11 bytes
  2589 ;; Hardware stack levels used:    1
  2590 ;; Hardware stack levels required when called:    4
  2591 ;; This function calls:
  2592 ;;		Nothing
  2593 ;; This function is called by:
  2594 ;;		_ECANSendMessage
  2595 ;; This function uses a non-reentrant model
  2596 ;;
  2597                           
  2598                           	psect	text7
  2599  0004E0                     __ptext7:
  2600                           	opt stack 0
  2601  0004E0                     __CANIDToRegs:
  2602                           	opt stack 25
  2603                           
  2604                           ;ECANPoll.c: 1101: CAN_MESSAGE_ID *Value;
  2605                           ;ECANPoll.c: 1103: Value = (CAN_MESSAGE_ID*)&val;
  2606                           
  2607                           ; BSR set to: 0
  2608                           ;incstack = 0
  2609  0004E0  0100               	movlb	0	; () banked
  2610  0004E2  0E00               	movlw	high __CANIDToRegs@val
  2611  0004E4  0100               	movlb	0	; () banked
  2612  0004E6  0100               	movlb	0	; () banked
  2613  0004E8  6F78               	movwf	(__CANIDToRegs@Value+1)& (0+255),b
  2614  0004EA  0100               	movlb	0	; () banked
  2615  0004EC  0E70               	movlw	low __CANIDToRegs@val
  2616  0004EE  0100               	movlb	0	; () banked
  2617  0004F0  0100               	movlb	0	; () banked
  2618  0004F2  6F77               	movwf	__CANIDToRegs@Value& (0+255),b
  2619                           
  2620                           ; BSR set to: 0
  2621                           ;ECANPoll.c: 1105: if ( type == 0 )
  2622  0004F4  0100               	movlb	0	; () banked
  2623  0004F6  0100               	movlb	0	; () banked
  2624  0004F8  6774               	tstfsz	__CANIDToRegs@type& (0+255),b
  2625  0004FA  D04D               	goto	l2006
  2626                           
  2627                           ; BSR set to: 0
  2628                           ;ECANPoll.c: 1106: {
  2629                           ;ECANPoll.c: 1108: *ptr = Value->BYTES.BYTE_1 >> 3;
  2630  0004FC  C077  FFD9         	movff	__CANIDToRegs@Value,fsr2l
  2631  000500  C078  FFDA         	movff	__CANIDToRegs@Value+1,fsr2h
  2632  000504  50DF               	movf	indf2,w,c
  2633  000506  0100               	movlb	0	; () banked
  2634  000508  6F75               	movwf	??__CANIDToRegs& (0+255),b
  2635  00050A  0100               	movlb	0	; () banked
  2636  00050C  90D8               	bcf	status,0,c
  2637  00050E  3375               	rrcf	??__CANIDToRegs& (0+255),f,b
  2638  000510  0100               	movlb	0	; () banked
  2639  000512  90D8               	bcf	status,0,c
  2640  000514  3375               	rrcf	??__CANIDToRegs& (0+255),f,b
  2641  000516  0100               	movlb	0	; () banked
  2642  000518  90D8               	bcf	status,0,c
  2643  00051A  3175               	rrcf	??__CANIDToRegs& (0+255),w,b
  2644  00051C  C06E  FFD9         	movff	__CANIDToRegs@ptr,fsr2l
  2645  000520  C06F  FFDA         	movff	__CANIDToRegs@ptr+1,fsr2h
  2646  000524  6EDF               	movwf	indf2,c
  2647                           
  2648                           ;ECANPoll.c: 1109: *ptr |= (Value->BYTES.BYTE_2 << 5);
  2649  000526  0100               	movlb	0	; () banked
  2650  000528  EE20 F001          	lfsr	2,1
  2651  00052C  0100               	movlb	0	; () banked
  2652  00052E  5177               	movf	__CANIDToRegs@Value& (0+255),w,b
  2653  000530  26D9               	addwf	fsr2l,f,c
  2654  000532  0100               	movlb	0	; () banked
  2655  000534  5178               	movf	(__CANIDToRegs@Value+1)& (0+255),w,b
  2656  000536  22DA               	addwfc	fsr2h,f,c
  2657  000538  50DF               	movf	indf2,w,c
  2658  00053A  0100               	movlb	0	; () banked
  2659  00053C  6F75               	movwf	??__CANIDToRegs& (0+255),b
  2660  00053E  0E05               	movlw	5
  2661  000540  0100               	movlb	0	; () banked
  2662  000542  6F76               	movwf	(??__CANIDToRegs+1)& (0+255),b
  2663  000544                     u1285:
  2664  000544  0100               	movlb	0	; () banked
  2665  000546  90D8               	bcf	status,0,c
  2666  000548  3775               	rlcf	??__CANIDToRegs& (0+255),f,b
  2667  00054A  0100               	movlb	0	; () banked
  2668  00054C  2F76               	decfsz	(??__CANIDToRegs+1)& (0+255),f,b
  2669  00054E  D7FA               	goto	u1285
  2670  000550  C06E  FFD9         	movff	__CANIDToRegs@ptr,fsr2l
  2671  000554  C06F  FFDA         	movff	__CANIDToRegs@ptr+1,fsr2h
  2672  000558  0100               	movlb	0	; () banked
  2673  00055A  5175               	movf	??__CANIDToRegs& (0+255),w,b
  2674  00055C  12DF               	iorwf	indf2,f,c
  2675                           
  2676                           ; BSR set to: 0
  2677                           ;ECANPoll.c: 1110: ptr++;
  2678  00055E  0100               	movlb	0	; () banked
  2679  000560  0100               	movlb	0	; () banked
  2680  000562  4B6E               	infsnz	__CANIDToRegs@ptr& (0+255),f,b
  2681  000564  2B6F               	incf	(__CANIDToRegs@ptr+1)& (0+255),f,b
  2682                           
  2683                           ; BSR set to: 0
  2684                           ;ECANPoll.c: 1111: *ptr = Value->BYTES.BYTE_1 << 5;
  2685  000566  C077  FFD9         	movff	__CANIDToRegs@Value,fsr2l
  2686  00056A  C078  FFDA         	movff	__CANIDToRegs@Value+1,fsr2h
  2687  00056E  50DF               	movf	indf2,w,c
  2688  000570  0100               	movlb	0	; () banked
  2689  000572  6F75               	movwf	??__CANIDToRegs& (0+255),b
  2690  000574  0E05               	movlw	5
  2691  000576  0100               	movlb	0	; () banked
  2692  000578  6F76               	movwf	(??__CANIDToRegs+1)& (0+255),b
  2693  00057A                     u1295:
  2694  00057A  0100               	movlb	0	; () banked
  2695  00057C  90D8               	bcf	status,0,c
  2696  00057E  3775               	rlcf	??__CANIDToRegs& (0+255),f,b
  2697  000580  0100               	movlb	0	; () banked
  2698  000582  2F76               	decfsz	(??__CANIDToRegs+1)& (0+255),f,b
  2699  000584  D7FA               	goto	u1295
  2700  000586  0100               	movlb	0	; () banked
  2701  000588  5175               	movf	??__CANIDToRegs& (0+255),w,b
  2702  00058A  C06E  FFD9         	movff	__CANIDToRegs@ptr,fsr2l
  2703  00058E  C06F  FFDA         	movff	__CANIDToRegs@ptr+1,fsr2h
  2704  000592  6EDF               	movwf	indf2,c
  2705                           
  2706                           ;ECANPoll.c: 1112: }
  2707  000594  0012               	return	
  2708  000596                     l2006:
  2709                           
  2710                           ; BSR set to: 0
  2711                           ;ECANPoll.c: 1113: else
  2712                           ;ECANPoll.c: 1114: {
  2713                           ;ECANPoll.c: 1116: *ptr = Value->BYTES.BYTE_3 >> 5;
  2714  000596  0100               	movlb	0	; () banked
  2715  000598  EE20 F002          	lfsr	2,2
  2716  00059C  0100               	movlb	0	; () banked
  2717  00059E  5177               	movf	__CANIDToRegs@Value& (0+255),w,b
  2718  0005A0  26D9               	addwf	fsr2l,f,c
  2719  0005A2  0100               	movlb	0	; () banked
  2720  0005A4  5178               	movf	(__CANIDToRegs@Value+1)& (0+255),w,b
  2721  0005A6  22DA               	addwfc	fsr2h,f,c
  2722  0005A8  50DF               	movf	indf2,w,c
  2723  0005AA  0100               	movlb	0	; () banked
  2724  0005AC  6F75               	movwf	??__CANIDToRegs& (0+255),b
  2725  0005AE  0E05               	movlw	5
  2726  0005B0  0100               	movlb	0	; () banked
  2727  0005B2  6F76               	movwf	(??__CANIDToRegs+1)& (0+255),b
  2728  0005B4                     u1305:
  2729  0005B4  0100               	movlb	0	; () banked
  2730  0005B6  90D8               	bcf	status,0,c
  2731  0005B8  3375               	rrcf	??__CANIDToRegs& (0+255),f,b
  2732  0005BA  0100               	movlb	0	; () banked
  2733  0005BC  2F76               	decfsz	(??__CANIDToRegs+1)& (0+255),f,b
  2734  0005BE  D7FA               	goto	u1305
  2735  0005C0  0100               	movlb	0	; () banked
  2736  0005C2  5175               	movf	??__CANIDToRegs& (0+255),w,b
  2737  0005C4  C06E  FFD9         	movff	__CANIDToRegs@ptr,fsr2l
  2738  0005C8  C06F  FFDA         	movff	__CANIDToRegs@ptr+1,fsr2h
  2739  0005CC  6EDF               	movwf	indf2,c
  2740                           
  2741                           ;ECANPoll.c: 1117: *ptr |= Value->BYTES.BYTE_4 << 3;
  2742  0005CE  0100               	movlb	0	; () banked
  2743  0005D0  EE20 F003          	lfsr	2,3
  2744  0005D4  0100               	movlb	0	; () banked
  2745  0005D6  5177               	movf	__CANIDToRegs@Value& (0+255),w,b
  2746  0005D8  26D9               	addwf	fsr2l,f,c
  2747  0005DA  0100               	movlb	0	; () banked
  2748  0005DC  5178               	movf	(__CANIDToRegs@Value+1)& (0+255),w,b
  2749  0005DE  22DA               	addwfc	fsr2h,f,c
  2750  0005E0  50DF               	movf	indf2,w,c
  2751  0005E2  0100               	movlb	0	; () banked
  2752  0005E4  6F75               	movwf	??__CANIDToRegs& (0+255),b
  2753  0005E6  0100               	movlb	0	; () banked
  2754  0005E8  90D8               	bcf	status,0,c
  2755  0005EA  3775               	rlcf	??__CANIDToRegs& (0+255),f,b
  2756  0005EC  0100               	movlb	0	; () banked
  2757  0005EE  90D8               	bcf	status,0,c
  2758  0005F0  3775               	rlcf	??__CANIDToRegs& (0+255),f,b
  2759  0005F2  0100               	movlb	0	; () banked
  2760  0005F4  90D8               	bcf	status,0,c
  2761  0005F6  3775               	rlcf	??__CANIDToRegs& (0+255),f,b
  2762  0005F8  C06E  FFD9         	movff	__CANIDToRegs@ptr,fsr2l
  2763  0005FC  C06F  FFDA         	movff	__CANIDToRegs@ptr+1,fsr2h
  2764  000600  0100               	movlb	0	; () banked
  2765  000602  5175               	movf	??__CANIDToRegs& (0+255),w,b
  2766  000604  12DF               	iorwf	indf2,f,c
  2767                           
  2768                           ; BSR set to: 0
  2769                           ;ECANPoll.c: 1118: ptr++;
  2770  000606  0100               	movlb	0	; () banked
  2771  000608  0100               	movlb	0	; () banked
  2772  00060A  4B6E               	infsnz	__CANIDToRegs@ptr& (0+255),f,b
  2773  00060C  2B6F               	incf	(__CANIDToRegs@ptr+1)& (0+255),f,b
  2774                           
  2775                           ; BSR set to: 0
  2776                           ;ECANPoll.c: 1119: *ptr = (Value->BYTES.BYTE_3 << 3) & 0xE0;
  2777  00060E  0100               	movlb	0	; () banked
  2778  000610  EE20 F002          	lfsr	2,2
  2779  000614  0100               	movlb	0	; () banked
  2780  000616  5177               	movf	__CANIDToRegs@Value& (0+255),w,b
  2781  000618  26D9               	addwf	fsr2l,f,c
  2782  00061A  0100               	movlb	0	; () banked
  2783  00061C  5178               	movf	(__CANIDToRegs@Value+1)& (0+255),w,b
  2784  00061E  22DA               	addwfc	fsr2h,f,c
  2785  000620  50DF               	movf	indf2,w,c
  2786  000622  0100               	movlb	0	; () banked
  2787  000624  6F75               	movwf	??__CANIDToRegs& (0+255),b
  2788  000626  0100               	movlb	0	; () banked
  2789  000628  90D8               	bcf	status,0,c
  2790  00062A  3775               	rlcf	??__CANIDToRegs& (0+255),f,b
  2791  00062C  0100               	movlb	0	; () banked
  2792  00062E  90D8               	bcf	status,0,c
  2793  000630  3775               	rlcf	??__CANIDToRegs& (0+255),f,b
  2794  000632  0100               	movlb	0	; () banked
  2795  000634  90D8               	bcf	status,0,c
  2796  000636  3575               	rlcf	??__CANIDToRegs& (0+255),w,b
  2797  000638  0BE0               	andlw	224
  2798  00063A  C06E  FFD9         	movff	__CANIDToRegs@ptr,fsr2l
  2799  00063E  C06F  FFDA         	movff	__CANIDToRegs@ptr+1,fsr2h
  2800  000642  6EDF               	movwf	indf2,c
  2801                           
  2802                           ; BSR set to: 0
  2803                           ;ECANPoll.c: 1121: *ptr |= 0b00001000;
  2804  000644  C06E  FFD9         	movff	__CANIDToRegs@ptr,fsr2l
  2805  000648  C06F  FFDA         	movff	__CANIDToRegs@ptr+1,fsr2h
  2806  00064C  0E00               	movlw	0
  2807  00064E  86DB               	bsf	plusw2,3,c
  2808                           
  2809                           ; BSR set to: 0
  2810                           ;ECANPoll.c: 1122: *ptr |= Value->BYTES.BYTE_3 & 0x03;
  2811  000650  0100               	movlb	0	; () banked
  2812  000652  EE20 F002          	lfsr	2,2
  2813  000656  0100               	movlb	0	; () banked
  2814  000658  5177               	movf	__CANIDToRegs@Value& (0+255),w,b
  2815  00065A  26D9               	addwf	fsr2l,f,c
  2816  00065C  0100               	movlb	0	; () banked
  2817  00065E  5178               	movf	(__CANIDToRegs@Value+1)& (0+255),w,b
  2818  000660  22DA               	addwfc	fsr2h,f,c
  2819  000662  50DF               	movf	indf2,w,c
  2820  000664  0100               	movlb	0	; () banked
  2821  000666  6F75               	movwf	??__CANIDToRegs& (0+255),b
  2822  000668  0E03               	movlw	3
  2823  00066A  0100               	movlb	0	; () banked
  2824  00066C  1775               	andwf	??__CANIDToRegs& (0+255),f,b
  2825  00066E  C06E  FFD9         	movff	__CANIDToRegs@ptr,fsr2l
  2826  000672  C06F  FFDA         	movff	__CANIDToRegs@ptr+1,fsr2h
  2827  000676  0100               	movlb	0	; () banked
  2828  000678  5175               	movf	??__CANIDToRegs& (0+255),w,b
  2829  00067A  12DF               	iorwf	indf2,f,c
  2830                           
  2831                           ;ECANPoll.c: 1123: ptr++;
  2832  00067C  0100               	movlb	0	; () banked
  2833  00067E  0100               	movlb	0	; () banked
  2834  000680  4B6E               	infsnz	__CANIDToRegs@ptr& (0+255),f,b
  2835  000682  2B6F               	incf	(__CANIDToRegs@ptr+1)& (0+255),f,b
  2836                           
  2837                           ; BSR set to: 0
  2838                           ;ECANPoll.c: 1124: *ptr = Value->BYTES.BYTE_2;
  2839  000684  0100               	movlb	0	; () banked
  2840  000686  EE20 F001          	lfsr	2,1
  2841  00068A  0100               	movlb	0	; () banked
  2842  00068C  5177               	movf	__CANIDToRegs@Value& (0+255),w,b
  2843  00068E  26D9               	addwf	fsr2l,f,c
  2844  000690  0100               	movlb	0	; () banked
  2845  000692  5178               	movf	(__CANIDToRegs@Value+1)& (0+255),w,b
  2846  000694  22DA               	addwfc	fsr2h,f,c
  2847  000696  C06E  FFE1         	movff	__CANIDToRegs@ptr,fsr1l
  2848  00069A  C06F  FFE2         	movff	__CANIDToRegs@ptr+1,fsr1h
  2849  00069E  CFDF FFE7          	movff	indf2,indf1
  2850                           
  2851                           ; BSR set to: 0
  2852                           ;ECANPoll.c: 1125: ptr++;
  2853  0006A2  0100               	movlb	0	; () banked
  2854  0006A4  0100               	movlb	0	; () banked
  2855  0006A6  4B6E               	infsnz	__CANIDToRegs@ptr& (0+255),f,b
  2856  0006A8  2B6F               	incf	(__CANIDToRegs@ptr+1)& (0+255),f,b
  2857                           
  2858                           ; BSR set to: 0
  2859                           ;ECANPoll.c: 1126: *ptr = Value->BYTES.BYTE_1;
  2860  0006AA  C077  FFD9         	movff	__CANIDToRegs@Value,fsr2l
  2861  0006AE  C078  FFDA         	movff	__CANIDToRegs@Value+1,fsr2h
  2862  0006B2  C06E  FFE1         	movff	__CANIDToRegs@ptr,fsr1l
  2863  0006B6  C06F  FFE2         	movff	__CANIDToRegs@ptr+1,fsr1h
  2864  0006BA  CFDF FFE7          	movff	indf2,indf1
  2865  0006BE  0012               	return	
  2866  0006C0                     __end_of__CANIDToRegs:
  2867                           	opt stack 0
  2868                           pclatu	equ	0xFFB
  2869                           pclath	equ	0xFFA
  2870                           tblptru	equ	0xFF8
  2871                           tblptrh	equ	0xFF7
  2872                           tblptrl	equ	0xFF6
  2873                           tablat	equ	0xFF5
  2874                           prodh	equ	0xFF4
  2875                           prodl	equ	0xFF3
  2876                           intcon	equ	0xFF2
  2877                           postinc0	equ	0xFEE
  2878                           postdec0	equ	0xFED
  2879                           fsr0h	equ	0xFEA
  2880                           fsr0l	equ	0xFE9
  2881                           wreg	equ	0xFE8
  2882                           indf1	equ	0xFE7
  2883                           postinc1	equ	0xFE6
  2884                           fsr1h	equ	0xFE2
  2885                           fsr1l	equ	0xFE1
  2886                           bsr	equ	0xFE0
  2887                           indf2	equ	0xFDF
  2888                           postinc2	equ	0xFDE
  2889                           postdec2	equ	0xFDD
  2890                           plusw2	equ	0xFDB
  2891                           fsr2h	equ	0xFDA
  2892                           fsr2l	equ	0xFD9
  2893                           status	equ	0xFD8
  2894                           
  2895 ;; *************** function _ECANInitialize *****************
  2896 ;; Defined at:
  2897 ;;		line 164 in file "ECANPoll.c"
  2898 ;; Parameters:    Size  Location     Type
  2899 ;;		None
  2900 ;; Auto vars:     Size  Location     Type
  2901 ;;		None
  2902 ;; Return value:  Size  Location     Type
  2903 ;;		None               void
  2904 ;; Registers used:
  2905 ;;		wreg, status,2, status,0, cstack
  2906 ;; Tracked objects:
  2907 ;;		On entry : 0/0
  2908 ;;		On exit  : 0/0
  2909 ;;		Unchanged: 0/0
  2910 ;; Data sizes:     COMRAM   BANK0   BANK1   BANK2   BANK3   BANK4   BANK5   BANK6   BANK7   BANK8   BANK9  BANK10  BANK1
      +1  BANK12  BANK13  BANK14
  2911 ;;      Params:         0       0       0       0       0       0       0       0       0       0       0       0       
      +0       0       0       0
  2912 ;;      Locals:         0       0       0       0       0       0       0       0       0       0       0       0       
      +0       0       0       0
  2913 ;;      Temps:          0       0       0       0       0       0       0       0       0       0       0       0       
      +0       0       0       0
  2914 ;;      Totals:         0       0       0       0       0       0       0       0       0       0       0       0       
      +0       0       0       0
  2915 ;;Total ram usage:        0 bytes
  2916 ;; Hardware stack levels used:    1
  2917 ;; Hardware stack levels required when called:    5
  2918 ;; This function calls:
  2919 ;;		_ECANSetOperationMode
  2920 ;; This function is called by:
  2921 ;;		_main
  2922 ;; This function uses a non-reentrant model
  2923 ;;
  2924                           
  2925                           	psect	text8
  2926  000D2A                     __ptext8:
  2927                           	opt stack 0
  2928  000D2A                     _ECANInitialize:
  2929                           	opt stack 25
  2930                           
  2931                           ;ECANPoll.c: 168: ECANSetOperationMode(ECAN_OP_MODE_CONFIG);
  2932                           
  2933                           ; BSR set to: 0
  2934                           ;incstack = 0
  2935  000D2A  0E80               	movlw	128
  2936  000D2C  EC2B  F009         	call	_ECANSetOperationMode
  2937                           
  2938                           ;ECANPoll.c: 172: BRGCON1 = ((1-1) << 6) | (2-1);
  2939  000D30  0E01               	movlw	1
  2940  000D32  010E               	movlb	14	; () banked
  2941  000D34  010E               	movlb	14	; () banked
  2942  000D36  6F43               	movwf	67,b	;volatile
  2943                           
  2944                           ; BSR set to: 14
  2945                           ;ECANPoll.c: 173: BRGCON2 = (0 << 7) | (1 << 6) | ((7-1) << 3) | (1-1);
  2946  000D38  0E70               	movlw	112
  2947  000D3A  010E               	movlb	14	; () banked
  2948  000D3C  010E               	movlb	14	; () banked
  2949  000D3E  6F44               	movwf	68,b	;volatile
  2950                           
  2951                           ; BSR set to: 14
  2952                           ;ECANPoll.c: 177: BRGCON3 = (0 << 7) |
  2953                           ;ECANPoll.c: 178: (0 << 6) |
  2954                           ;ECANPoll.c: 179: (1-1);
  2955  000D40  0E00               	movlw	0
  2956  000D42  010E               	movlb	14	; () banked
  2957  000D44  010E               	movlb	14	; () banked
  2958  000D46  6F45               	movwf	69,b	;volatile
  2959                           
  2960                           ; BSR set to: 14
  2961                           ;ECANPoll.c: 182: CIOCON = 0 << 7 | 0 << 6 | 1 << 5 | 1 << 4;
  2962  000D48  0E30               	movlw	48
  2963  000D4A  6E70               	movwf	3952,c	;volatile
  2964                           
  2965                           ; BSR set to: 14
  2966                           ;ECANPoll.c: 189: MDSEL1 = 0x00 >> 7;
  2967  000D4C  9E72               	bcf	3954,7,c	;volatile
  2968                           
  2969                           ; BSR set to: 14
  2970                           ;ECANPoll.c: 190: MDSEL0 = 0x00 >> 6;
  2971  000D4E  9C72               	bcf	3954,6,c	;volatile
  2972                           
  2973                           ; BSR set to: 14
  2974                           ;ECANPoll.c: 195: RXB0CON = (0 << 5) | (0 << 2);
  2975  000D50  0E00               	movlw	0
  2976  000D52  6E60               	movwf	3936,c	;volatile
  2977                           
  2978                           ; BSR set to: 14
  2979                           ;ECANPoll.c: 196: RXB1CON = 0 << 5;
  2980  000D54  0E00               	movlw	0
  2981  000D56  010F               	movlb	15	; () banked
  2982  000D58  010F               	movlb	15	; () banked
  2983  000D5A  6F30               	movwf	48,b	;volatile
  2984                           
  2985                           ; BSR set to: 15
  2986                           ;ECANPoll.c: 290: RXF0SIDH = (long)0x0L >> 3L;RXF0SIDL = (long)0x0L << 5L;
  2987  000D5C  0E00               	movlw	0
  2988  000D5E  010E               	movlb	14	; () banked
  2989  000D60  010E               	movlb	14	; () banked
  2990  000D62  6FE0               	movwf	224,b	;volatile
  2991                           
  2992                           ; BSR set to: 14
  2993  000D64  0E00               	movlw	0
  2994  000D66  010E               	movlb	14	; () banked
  2995  000D68  010E               	movlb	14	; () banked
  2996  000D6A  6FE1               	movwf	225,b	;volatile
  2997                           
  2998                           ; BSR set to: 14
  2999                           ;ECANPoll.c: 298: RXF1SIDH = (long)0x0L >> 3L;RXF1SIDL = (long)0x0L << 5L;
  3000  000D6C  0E00               	movlw	0
  3001  000D6E  010E               	movlb	14	; () banked
  3002  000D70  010E               	movlb	14	; () banked
  3003  000D72  6FE4               	movwf	228,b	;volatile
  3004                           
  3005                           ; BSR set to: 14
  3006  000D74  0E00               	movlw	0
  3007  000D76  010E               	movlb	14	; () banked
  3008  000D78  010E               	movlb	14	; () banked
  3009  000D7A  6FE5               	movwf	229,b	;volatile
  3010                           
  3011                           ; BSR set to: 14
  3012                           ;ECANPoll.c: 307: RXF2SIDH = (long)0x0L >> 3L;RXF2SIDL = (long)0x0L << 5L;
  3013  000D7C  0E00               	movlw	0
  3014  000D7E  010E               	movlb	14	; () banked
  3015  000D80  010E               	movlb	14	; () banked
  3016  000D82  6FE8               	movwf	232,b	;volatile
  3017                           
  3018                           ; BSR set to: 14
  3019  000D84  0E00               	movlw	0
  3020  000D86  010E               	movlb	14	; () banked
  3021  000D88  010E               	movlb	14	; () banked
  3022  000D8A  6FE9               	movwf	233,b	;volatile
  3023                           
  3024                           ; BSR set to: 14
  3025                           ;ECANPoll.c: 316: RXF3SIDH = (long)0x0L >> 3L;RXF3SIDL = (long)0x0L << 5L;
  3026  000D8C  0E00               	movlw	0
  3027  000D8E  010E               	movlb	14	; () banked
  3028  000D90  010E               	movlb	14	; () banked
  3029  000D92  6FEC               	movwf	236,b	;volatile
  3030                           
  3031                           ; BSR set to: 14
  3032  000D94  0E00               	movlw	0
  3033  000D96  010E               	movlb	14	; () banked
  3034  000D98  010E               	movlb	14	; () banked
  3035  000D9A  6FED               	movwf	237,b	;volatile
  3036                           
  3037                           ; BSR set to: 14
  3038                           ;ECANPoll.c: 325: RXF4SIDH = (long)0x0L >> 3L;RXF4SIDL = (long)0x0L << 5L;
  3039  000D9C  0E00               	movlw	0
  3040  000D9E  010E               	movlb	14	; () banked
  3041  000DA0  010E               	movlb	14	; () banked
  3042  000DA2  6FF0               	movwf	240,b	;volatile
  3043                           
  3044                           ; BSR set to: 14
  3045  000DA4  0E00               	movlw	0
  3046  000DA6  010E               	movlb	14	; () banked
  3047  000DA8  010E               	movlb	14	; () banked
  3048  000DAA  6FF1               	movwf	241,b	;volatile
  3049                           
  3050                           ; BSR set to: 14
  3051                           ;ECANPoll.c: 333: RXF5SIDH = (long)0x0L >> 3L;RXF5SIDL = (long)0x0L << 5L;
  3052  000DAC  0E00               	movlw	0
  3053  000DAE  010E               	movlb	14	; () banked
  3054  000DB0  010E               	movlb	14	; () banked
  3055  000DB2  6FF4               	movwf	244,b	;volatile
  3056                           
  3057                           ; BSR set to: 14
  3058  000DB4  0E00               	movlw	0
  3059  000DB6  010E               	movlb	14	; () banked
  3060  000DB8  010E               	movlb	14	; () banked
  3061  000DBA  6FF5               	movwf	245,b	;volatile
  3062                           
  3063                           ; BSR set to: 14
  3064                           ;ECANPoll.c: 475: RXM0SIDH = (long)0x0L >> 3L; RXM0SIDL = (long)0x0L << 5L;
  3065  000DBC  0E00               	movlw	0
  3066  000DBE  010E               	movlb	14	; () banked
  3067  000DC0  010E               	movlb	14	; () banked
  3068  000DC2  6FF8               	movwf	248,b	;volatile
  3069                           
  3070                           ; BSR set to: 14
  3071  000DC4  0E00               	movlw	0
  3072  000DC6  010E               	movlb	14	; () banked
  3073  000DC8  010E               	movlb	14	; () banked
  3074  000DCA  6FF9               	movwf	249,b	;volatile
  3075                           
  3076                           ; BSR set to: 14
  3077                           ;ECANPoll.c: 476: RXM0EXIDM = 0;
  3078  000DCC  010E               	movlb	14
  3079  000DCE  010E               	movlb	14	; () banked
  3080  000DD0  97F9               	bcf	249,3,b	;volatile
  3081                           
  3082                           ; BSR set to: 14
  3083                           ;ECANPoll.c: 483: RXM1SIDH = (long)0x0L >> 3L; RXM1SIDL = (long)0x0L << 5L;
  3084  000DD2  0E00               	movlw	0
  3085  000DD4  010E               	movlb	14	; () banked
  3086  000DD6  010E               	movlb	14	; () banked
  3087  000DD8  6FFC               	movwf	252,b	;volatile
  3088                           
  3089                           ; BSR set to: 14
  3090  000DDA  0E00               	movlw	0
  3091  000DDC  010E               	movlb	14	; () banked
  3092  000DDE  010E               	movlb	14	; () banked
  3093  000DE0  6FFD               	movwf	253,b	;volatile
  3094                           
  3095                           ; BSR set to: 14
  3096                           ;ECANPoll.c: 484: RXM1EXIDEN = 0;
  3097  000DE2  010E               	movlb	14
  3098  000DE4  010E               	movlb	14	; () banked
  3099  000DE6  97FD               	bcf	253,3,b	;volatile
  3100                           
  3101                           ;ECANPoll.c: 495: ECANSetOperationMode(0x00);
  3102  000DE8  0E00               	movlw	0
  3103  000DEA  EC2B  F009         	call	_ECANSetOperationMode
  3104  000DEE  0012               	return	
  3105  000DF0                     __end_of_ECANInitialize:
  3106                           	opt stack 0
  3107                           pclatu	equ	0xFFB
  3108                           pclath	equ	0xFFA
  3109                           tblptru	equ	0xFF8
  3110                           tblptrh	equ	0xFF7
  3111                           tblptrl	equ	0xFF6
  3112                           tablat	equ	0xFF5
  3113                           prodh	equ	0xFF4
  3114                           prodl	equ	0xFF3
  3115                           intcon	equ	0xFF2
  3116                           postinc0	equ	0xFEE
  3117                           postdec0	equ	0xFED
  3118                           fsr0h	equ	0xFEA
  3119                           fsr0l	equ	0xFE9
  3120                           wreg	equ	0xFE8
  3121                           indf1	equ	0xFE7
  3122                           postinc1	equ	0xFE6
  3123                           fsr1h	equ	0xFE2
  3124                           fsr1l	equ	0xFE1
  3125                           bsr	equ	0xFE0
  3126                           indf2	equ	0xFDF
  3127                           postinc2	equ	0xFDE
  3128                           postdec2	equ	0xFDD
  3129                           plusw2	equ	0xFDB
  3130                           fsr2h	equ	0xFDA
  3131                           fsr2l	equ	0xFD9
  3132                           status	equ	0xFD8
  3133                           
  3134 ;; *************** function _ECANSetOperationMode *****************
  3135 ;; Defined at:
  3136 ;;		line 1012 in file "ECANPoll.c"
  3137 ;; Parameters:    Size  Location     Type
  3138 ;;  mode            1    wreg     enum E19311
  3139 ;; Auto vars:     Size  Location     Type
  3140 ;;  mode            1   14[BANK0 ] enum E19311
  3141 ;; Return value:  Size  Location     Type
  3142 ;;		None               void
  3143 ;; Registers used:
  3144 ;;		wreg, status,2, status,0
  3145 ;; Tracked objects:
  3146 ;;		On entry : 0/0
  3147 ;;		On exit  : 0/0
  3148 ;;		Unchanged: 0/0
  3149 ;; Data sizes:     COMRAM   BANK0   BANK1   BANK2   BANK3   BANK4   BANK5   BANK6   BANK7   BANK8   BANK9  BANK10  BANK1
      +1  BANK12  BANK13  BANK14
  3150 ;;      Params:         0       0       0       0       0       0       0       0       0       0       0       0       
      +0       0       0       0
  3151 ;;      Locals:         0       1       0       0       0       0       0       0       0       0       0       0       
      +0       0       0       0
  3152 ;;      Temps:          0       0       0       0       0       0       0       0       0       0       0       0       
      +0       0       0       0
  3153 ;;      Totals:         0       1       0       0       0       0       0       0       0       0       0       0       
      +0       0       0       0
  3154 ;;Total ram usage:        1 bytes
  3155 ;; Hardware stack levels used:    1
  3156 ;; Hardware stack levels required when called:    4
  3157 ;; This function calls:
  3158 ;;		Nothing
  3159 ;; This function is called by:
  3160 ;;		_ECANInitialize
  3161 ;; This function uses a non-reentrant model
  3162 ;;
  3163                           
  3164                           	psect	text9
  3165  001256                     __ptext9:
  3166                           	opt stack 0
  3167  001256                     _ECANSetOperationMode:
  3168                           	opt stack 25
  3169                           
  3170                           ;incstack = 0
  3171                           ;ECANSetOperationMode@mode stored from wreg
  3172  001256  CFE8 F06E          	movff	wreg,ECANSetOperationMode@mode
  3173                           
  3174                           ;ECANPoll.c: 1014: CANCON &= 0x1F;
  3175  00125A  0E1F               	movlw	31
  3176  00125C  166F               	andwf	3951,f,c	;volatile
  3177                           
  3178                           ;ECANPoll.c: 1015: CANCON |= mode;
  3179  00125E  0100               	movlb	0	; () banked
  3180  001260  0100               	movlb	0	; () banked
  3181  001262  516E               	movf	ECANSetOperationMode@mode& (0+255),w,b
  3182  001264  126F               	iorwf	3951,f,c	;volatile
  3183  001266                     l1994:
  3184                           
  3185                           ; BSR set to: 0
  3186  001266  506E               	movf	3950,w,c	;volatile
  3187  001268  0BE0               	andlw	224
  3188  00126A  0100               	movlb	0	; () banked
  3189  00126C  0100               	movlb	0	; () banked
  3190  00126E  196E               	xorwf	ECANSetOperationMode@mode& (0+255),w,b
  3191  001270  B4D8               	btfsc	status,2,c
  3192                           
  3193                           ; BSR set to: 0
  3194                           
  3195                           ; BSR set to: 0
  3196  001272  0012               	return	
  3197  001274  D7F8               	goto	l1994
  3198  001276                     __end_of_ECANSetOperationMode:
  3199                           	opt stack 0
  3200                           pclatu	equ	0xFFB
  3201                           pclath	equ	0xFFA
  3202                           tblptru	equ	0xFF8
  3203                           tblptrh	equ	0xFF7
  3204                           tblptrl	equ	0xFF6
  3205                           tablat	equ	0xFF5
  3206                           prodh	equ	0xFF4
  3207                           prodl	equ	0xFF3
  3208                           intcon	equ	0xFF2
  3209                           postinc0	equ	0xFEE
  3210                           postdec0	equ	0xFED
  3211                           fsr0h	equ	0xFEA
  3212                           fsr0l	equ	0xFE9
  3213                           wreg	equ	0xFE8
  3214                           indf1	equ	0xFE7
  3215                           postinc1	equ	0xFE6
  3216                           fsr1h	equ	0xFE2
  3217                           fsr1l	equ	0xFE1
  3218                           bsr	equ	0xFE0
  3219                           indf2	equ	0xFDF
  3220                           postinc2	equ	0xFDE
  3221                           postdec2	equ	0xFDD
  3222                           plusw2	equ	0xFDB
  3223                           fsr2h	equ	0xFDA
  3224                           fsr2l	equ	0xFD9
  3225                           status	equ	0xFD8
  3226                           
  3227 ;; *************** function _ECANFiltersInit *****************
  3228 ;; Defined at:
  3229 ;;		line 144 in file "Can_HL.c"
  3230 ;; Parameters:    Size  Location     Type
  3231 ;;		None
  3232 ;; Auto vars:     Size  Location     Type
  3233 ;;  mask            2   16[BANK0 ] unsigned int 
  3234 ;; Return value:  Size  Location     Type
  3235 ;;		None               void
  3236 ;; Registers used:
  3237 ;;		wreg, status,2, status,0
  3238 ;; Tracked objects:
  3239 ;;		On entry : 0/0
  3240 ;;		On exit  : 0/0
  3241 ;;		Unchanged: 0/0
  3242 ;; Data sizes:     COMRAM   BANK0   BANK1   BANK2   BANK3   BANK4   BANK5   BANK6   BANK7   BANK8   BANK9  BANK10  BANK1
      +1  BANK12  BANK13  BANK14
  3243 ;;      Params:         0       0       0       0       0       0       0       0       0       0       0       0       
      +0       0       0       0
  3244 ;;      Locals:         0       2       0       0       0       0       0       0       0       0       0       0       
      +0       0       0       0
  3245 ;;      Temps:          0       2       0       0       0       0       0       0       0       0       0       0       
      +0       0       0       0
  3246 ;;      Totals:         0       4       0       0       0       0       0       0       0       0       0       0       
      +0       0       0       0
  3247 ;;Total ram usage:        4 bytes
  3248 ;; Hardware stack levels used:    1
  3249 ;; Hardware stack levels required when called:    4
  3250 ;; This function calls:
  3251 ;;		Nothing
  3252 ;; This function is called by:
  3253 ;;		_main
  3254 ;; This function uses a non-reentrant model
  3255 ;;
  3256                           
  3257                           	psect	text10
  3258  000EB6                     __ptext10:
  3259                           	opt stack 0
  3260  000EB6                     _ECANFiltersInit:
  3261                           	opt stack 26
  3262                           
  3263                           ;Can_HL.c: 146: unsigned int mask;
  3264                           ;Can_HL.c: 149: RXM0SIDH = 0b11111110;
  3265                           
  3266                           ; BSR set to: 0
  3267                           ;incstack = 0
  3268  000EB6  0EFE               	movlw	254
  3269  000EB8  010E               	movlb	14	; () banked
  3270  000EBA  010E               	movlb	14	; () banked
  3271  000EBC  6FF8               	movwf	248,b	;volatile
  3272                           
  3273                           ;Can_HL.c: 150: RXM0SIDL = 0b00000000;
  3274  000EBE  0E00               	movlw	0
  3275  000EC0  010E               	movlb	14	; () banked
  3276  000EC2  010E               	movlb	14	; () banked
  3277  000EC4  6FF9               	movwf	249,b	;volatile
  3278                           
  3279                           ;Can_HL.c: 152: RXM1SIDH = 0b11111110;
  3280  000EC6  0EFE               	movlw	254
  3281  000EC8  010E               	movlb	14	; () banked
  3282  000ECA  010E               	movlb	14	; () banked
  3283  000ECC  6FFC               	movwf	252,b	;volatile
  3284                           
  3285                           ;Can_HL.c: 153: RXM1SIDL = 0b00000000;
  3286  000ECE  0E00               	movlw	0
  3287  000ED0  010E               	movlb	14	; () banked
  3288  000ED2  010E               	movlb	14	; () banked
  3289  000ED4  6FFD               	movwf	253,b	;volatile
  3290                           
  3291                           ; BSR set to: 14
  3292                           ;Can_HL.c: 157: mask = (0x07<<7 | LocalCanAdress<<4 |0000);
  3293  000ED6  0100               	movlb	0	; () banked
  3294  000ED8  0100               	movlb	0	; () banked
  3295  000EDA  51C9               	movf	_LocalCanAdress& (0+255),w,b
  3296  000EDC  0100               	movlb	0	; () banked
  3297  000EDE  6F6E               	movwf	??_ECANFiltersInit& (0+255),b
  3298  000EE0  6B6F               	clrf	(??_ECANFiltersInit+1)& (0+255),b
  3299  000EE2  0100               	movlb	0	; () banked
  3300  000EE4  3B6E               	swapf	??_ECANFiltersInit& (0+255),f,b
  3301  000EE6  3B6F               	swapf	(??_ECANFiltersInit+1)& (0+255),f,b
  3302  000EE8  0EF0               	movlw	240
  3303  000EEA  176F               	andwf	(??_ECANFiltersInit+1)& (0+255),f,b
  3304  000EEC  516E               	movf	??_ECANFiltersInit& (0+255),w,b
  3305  000EEE  0B0F               	andlw	15
  3306  000EF0  136F               	iorwf	(??_ECANFiltersInit+1)& (0+255),f,b
  3307  000EF2  0EF0               	movlw	240
  3308  000EF4  176E               	andwf	??_ECANFiltersInit& (0+255),f,b
  3309  000EF6  0E80               	movlw	128
  3310  000EF8  0100               	movlb	0	; () banked
  3311  000EFA  116E               	iorwf	??_ECANFiltersInit& (0+255),w,b
  3312  000EFC  0100               	movlb	0	; () banked
  3313  000EFE  0100               	movlb	0	; () banked
  3314  000F00  6F70               	movwf	ECANFiltersInit@mask& (0+255),b
  3315  000F02  0E03               	movlw	3
  3316  000F04  0100               	movlb	0	; () banked
  3317  000F06  116F               	iorwf	(??_ECANFiltersInit+1)& (0+255),w,b
  3318  000F08  0100               	movlb	0	; () banked
  3319  000F0A  6F71               	movwf	(ECANFiltersInit@mask+1)& (0+255),b
  3320                           
  3321                           ; BSR set to: 0
  3322                           ;Can_HL.c: 158: RXF0SIDH = (char) (mask >> 3);
  3323  000F0C  0100               	movlb	0	; () banked
  3324  000F0E  C070  F06E         	movff	ECANFiltersInit@mask,??_ECANFiltersInit
  3325  000F12  0100               	movlb	0	; () banked
  3326  000F14  C071  F06F         	movff	ECANFiltersInit@mask+1,??_ECANFiltersInit+1
  3327  000F18  0100               	movlb	0	; () banked
  3328  000F1A  90D8               	bcf	status,0,c
  3329  000F1C  336F               	rrcf	(??_ECANFiltersInit+1)& (0+255),f,b
  3330  000F1E  336E               	rrcf	??_ECANFiltersInit& (0+255),f,b
  3331  000F20  0100               	movlb	0	; () banked
  3332  000F22  90D8               	bcf	status,0,c
  3333  000F24  336F               	rrcf	(??_ECANFiltersInit+1)& (0+255),f,b
  3334  000F26  336E               	rrcf	??_ECANFiltersInit& (0+255),f,b
  3335  000F28  0100               	movlb	0	; () banked
  3336  000F2A  90D8               	bcf	status,0,c
  3337  000F2C  336F               	rrcf	(??_ECANFiltersInit+1)& (0+255),f,b
  3338  000F2E  336E               	rrcf	??_ECANFiltersInit& (0+255),f,b
  3339  000F30  0100               	movlb	0	; () banked
  3340  000F32  516E               	movf	??_ECANFiltersInit& (0+255),w,b
  3341  000F34  010E               	movlb	14	; () banked
  3342  000F36  010E               	movlb	14	; () banked
  3343  000F38  6FE0               	movwf	224,b	;volatile
  3344                           
  3345                           ; BSR set to: 14
  3346                           ;Can_HL.c: 159: RXF0SIDL = (char) (mask << 5);
  3347  000F3A  0100               	movlb	0	; () banked
  3348  000F3C  0100               	movlb	0	; () banked
  3349  000F3E  3970               	swapf	ECANFiltersInit@mask& (0+255),w,b
  3350  000F40  46E8               	rlncf	wreg,f,c
  3351  000F42  0BE0               	andlw	224
  3352  000F44  010E               	movlb	14	; () banked
  3353  000F46  010E               	movlb	14	; () banked
  3354  000F48  6FE1               	movwf	225,b	;volatile
  3355                           
  3356                           ; BSR set to: 14
  3357                           ;Can_HL.c: 164: RXF4SIDH = 0;
  3358  000F4A  0E00               	movlw	0
  3359  000F4C  010E               	movlb	14	; () banked
  3360  000F4E  010E               	movlb	14	; () banked
  3361  000F50  6FF0               	movwf	240,b	;volatile
  3362                           
  3363                           ; BSR set to: 14
  3364                           ;Can_HL.c: 165: RXF4SIDL = 0;
  3365  000F52  0E00               	movlw	0
  3366  000F54  010E               	movlb	14	; () banked
  3367  000F56  010E               	movlb	14	; () banked
  3368  000F58  6FF1               	movwf	241,b	;volatile
  3369                           
  3370                           ; BSR set to: 14
  3371                           ;Can_HL.c: 166: RXF5SIDH = 0;
  3372  000F5A  0E00               	movlw	0
  3373  000F5C  010E               	movlb	14	; () banked
  3374  000F5E  010E               	movlb	14	; () banked
  3375  000F60  6FF4               	movwf	244,b	;volatile
  3376                           
  3377                           ; BSR set to: 14
  3378                           ;Can_HL.c: 167: RXF5SIDL = 0;
  3379  000F62  0E00               	movlw	0
  3380  000F64  010E               	movlb	14	; () banked
  3381  000F66  010E               	movlb	14	; () banked
  3382  000F68  6FF5               	movwf	245,b	;volatile
  3383                           
  3384                           ; BSR set to: 14
  3385  000F6A  0012               	return	
  3386  000F6C                     __end_of_ECANFiltersInit:
  3387                           	opt stack 0
  3388                           pclatu	equ	0xFFB
  3389                           pclath	equ	0xFFA
  3390                           tblptru	equ	0xFF8
  3391                           tblptrh	equ	0xFF7
  3392                           tblptrl	equ	0xFF6
  3393                           tablat	equ	0xFF5
  3394                           prodh	equ	0xFF4
  3395                           prodl	equ	0xFF3
  3396                           intcon	equ	0xFF2
  3397                           postinc0	equ	0xFEE
  3398                           postdec0	equ	0xFED
  3399                           fsr0h	equ	0xFEA
  3400                           fsr0l	equ	0xFE9
  3401                           wreg	equ	0xFE8
  3402                           indf1	equ	0xFE7
  3403                           postinc1	equ	0xFE6
  3404                           fsr1h	equ	0xFE2
  3405                           fsr1l	equ	0xFE1
  3406                           bsr	equ	0xFE0
  3407                           indf2	equ	0xFDF
  3408                           postinc2	equ	0xFDE
  3409                           postdec2	equ	0xFDD
  3410                           plusw2	equ	0xFDB
  3411                           fsr2h	equ	0xFDA
  3412                           fsr2l	equ	0xFD9
  3413                           status	equ	0xFD8
  3414                           
  3415 ;; *************** function _ConfigureTimers *****************
  3416 ;; Defined at:
  3417 ;;		line 108 in file "system.c"
  3418 ;; Parameters:    Size  Location     Type
  3419 ;;		None
  3420 ;; Auto vars:     Size  Location     Type
  3421 ;;		None
  3422 ;; Return value:  Size  Location     Type
  3423 ;;		None               void
  3424 ;; Registers used:
  3425 ;;		wreg, status,2
  3426 ;; Tracked objects:
  3427 ;;		On entry : 0/0
  3428 ;;		On exit  : 0/0
  3429 ;;		Unchanged: 0/0
  3430 ;; Data sizes:     COMRAM   BANK0   BANK1   BANK2   BANK3   BANK4   BANK5   BANK6   BANK7   BANK8   BANK9  BANK10  BANK1
      +1  BANK12  BANK13  BANK14
  3431 ;;      Params:         0       0       0       0       0       0       0       0       0       0       0       0       
      +0       0       0       0
  3432 ;;      Locals:         0       0       0       0       0       0       0       0       0       0       0       0       
      +0       0       0       0
  3433 ;;      Temps:          0       0       0       0       0       0       0       0       0       0       0       0       
      +0       0       0       0
  3434 ;;      Totals:         0       0       0       0       0       0       0       0       0       0       0       0       
      +0       0       0       0
  3435 ;;Total ram usage:        0 bytes
  3436 ;; Hardware stack levels used:    1
  3437 ;; Hardware stack levels required when called:    4
  3438 ;; This function calls:
  3439 ;;		Nothing
  3440 ;; This function is called by:
  3441 ;;		_main
  3442 ;; This function uses a non-reentrant model
  3443 ;;
  3444                           
  3445                           	psect	text11
  3446  0011A0                     __ptext11:
  3447                           	opt stack 0
  3448  0011A0                     _ConfigureTimers:
  3449                           	opt stack 26
  3450                           
  3451                           ;system.c: 112: T0CONbits.T08BIT = 0;
  3452                           
  3453                           ; BSR set to: 14
  3454                           ;incstack = 0
  3455  0011A0  9CD5               	bcf	4053,6,c	;volatile
  3456                           
  3457                           ;system.c: 113: T0CONbits.T0CS = 0;
  3458  0011A2  9AD5               	bcf	4053,5,c	;volatile
  3459                           
  3460                           ;system.c: 114: T0CONbits.PSA = 0;
  3461  0011A4  96D5               	bcf	4053,3,c	;volatile
  3462                           
  3463                           ;system.c: 115: T0CONbits.T0PS=6;
  3464  0011A6  50D5               	movf	4053,w,c	;volatile
  3465  0011A8  0BF8               	andlw	-8
  3466  0011AA  0906               	iorlw	6
  3467  0011AC  6ED5               	movwf	4053,c	;volatile
  3468                           
  3469                           ;system.c: 117: TMR0H = 0xFB;
  3470  0011AE  0EFB               	movlw	251
  3471  0011B0  6ED7               	movwf	4055,c	;volatile
  3472                           
  3473                           ;system.c: 118: TMR0L = 0x1E;
  3474  0011B2  0E1E               	movlw	30
  3475  0011B4  6ED6               	movwf	4054,c	;volatile
  3476                           
  3477                           ;system.c: 120: T0CONbits.TMR0ON = 1;
  3478  0011B6  8ED5               	bsf	4053,7,c	;volatile
  3479                           
  3480                           ;system.c: 124: T2CONbits.T2OUTPS = 0;
  3481  0011B8  96CA               	bcf	4042,3,c	;volatile
  3482  0011BA  98CA               	bcf	4042,4,c	;volatile
  3483  0011BC  9ACA               	bcf	4042,5,c	;volatile
  3484  0011BE  9CCA               	bcf	4042,6,c	;volatile
  3485                           
  3486                           ;system.c: 125: T2CONbits.T2CKPS = 0x2;
  3487  0011C0  50CA               	movf	4042,w,c	;volatile
  3488  0011C2  0BFC               	andlw	-4
  3489  0011C4  0902               	iorlw	2
  3490  0011C6  6ECA               	movwf	4042,c	;volatile
  3491                           
  3492                           ;system.c: 126: PR2 = 100;
  3493  0011C8  0E64               	movlw	100
  3494  0011CA  6ECB               	movwf	4043,c	;volatile
  3495                           
  3496                           ;system.c: 130: T4CONbits.T4OUTPS = 0;
  3497  0011CC  9688               	bcf	3976,3,c	;volatile
  3498  0011CE  9888               	bcf	3976,4,c	;volatile
  3499  0011D0  9A88               	bcf	3976,5,c	;volatile
  3500  0011D2  9C88               	bcf	3976,6,c	;volatile
  3501                           
  3502                           ;system.c: 131: T4CONbits.T4CKPS = 0x2;
  3503  0011D4  5088               	movf	3976,w,c	;volatile
  3504  0011D6  0BFC               	andlw	-4
  3505  0011D8  0902               	iorlw	2
  3506  0011DA  6E88               	movwf	3976,c	;volatile
  3507                           
  3508                           ;system.c: 132: PR4=0xFF;
  3509  0011DC  68A9               	setf	4009,c	;volatile
  3510  0011DE  0012               	return	
  3511  0011E0                     __end_of_ConfigureTimers:
  3512                           	opt stack 0
  3513                           pclatu	equ	0xFFB
  3514                           pclath	equ	0xFFA
  3515                           tblptru	equ	0xFF8
  3516                           tblptrh	equ	0xFF7
  3517                           tblptrl	equ	0xFF6
  3518                           tablat	equ	0xFF5
  3519                           prodh	equ	0xFF4
  3520                           prodl	equ	0xFF3
  3521                           intcon	equ	0xFF2
  3522                           postinc0	equ	0xFEE
  3523                           postdec0	equ	0xFED
  3524                           fsr0h	equ	0xFEA
  3525                           fsr0l	equ	0xFE9
  3526                           wreg	equ	0xFE8
  3527                           indf1	equ	0xFE7
  3528                           postinc1	equ	0xFE6
  3529                           fsr1h	equ	0xFE2
  3530                           fsr1l	equ	0xFE1
  3531                           bsr	equ	0xFE0
  3532                           indf2	equ	0xFDF
  3533                           postinc2	equ	0xFDE
  3534                           postdec2	equ	0xFDD
  3535                           plusw2	equ	0xFDB
  3536                           fsr2h	equ	0xFDA
  3537                           fsr2l	equ	0xFD9
  3538                           status	equ	0xFD8
  3539                           
  3540 ;; *************** function _ConfigureOscillator *****************
  3541 ;; Defined at:
  3542 ;;		line 32 in file "system.c"
  3543 ;; Parameters:    Size  Location     Type
  3544 ;;		None
  3545 ;; Auto vars:     Size  Location     Type
  3546 ;;		None
  3547 ;; Return value:  Size  Location     Type
  3548 ;;		None               void
  3549 ;; Registers used:
  3550 ;;		wreg, status,2
  3551 ;; Tracked objects:
  3552 ;;		On entry : 0/0
  3553 ;;		On exit  : 0/0
  3554 ;;		Unchanged: 0/0
  3555 ;; Data sizes:     COMRAM   BANK0   BANK1   BANK2   BANK3   BANK4   BANK5   BANK6   BANK7   BANK8   BANK9  BANK10  BANK1
      +1  BANK12  BANK13  BANK14
  3556 ;;      Params:         0       0       0       0       0       0       0       0       0       0       0       0       
      +0       0       0       0
  3557 ;;      Locals:         0       0       0       0       0       0       0       0       0       0       0       0       
      +0       0       0       0
  3558 ;;      Temps:          0       0       0       0       0       0       0       0       0       0       0       0       
      +0       0       0       0
  3559 ;;      Totals:         0       0       0       0       0       0       0       0       0       0       0       0       
      +0       0       0       0
  3560 ;;Total ram usage:        0 bytes
  3561 ;; Hardware stack levels used:    1
  3562 ;; Hardware stack levels required when called:    4
  3563 ;; This function calls:
  3564 ;;		Nothing
  3565 ;; This function is called by:
  3566 ;;		_main
  3567 ;; This function uses a non-reentrant model
  3568 ;;
  3569                           
  3570                           	psect	text12
  3571  001276                     __ptext12:
  3572                           	opt stack 0
  3573  001276                     _ConfigureOscillator:
  3574                           	opt stack 26
  3575                           
  3576                           ;system.c: 35: OSCCONbits.IDLEN=1;
  3577                           
  3578                           ;incstack = 0
  3579  001276  8ED3               	bsf	4051,7,c	;volatile
  3580                           
  3581                           ;system.c: 36: OSCCONbits.IRCF=0;
  3582  001278  98D3               	bcf	4051,4,c	;volatile
  3583  00127A  9AD3               	bcf	4051,5,c	;volatile
  3584  00127C  9CD3               	bcf	4051,6,c	;volatile
  3585                           
  3586                           ;system.c: 37: OSCCONbits.SCS=0;
  3587  00127E  0EFC               	movlw	-4
  3588  001280  16D3               	andwf	4051,f,c	;volatile
  3589  001282  0012               	return	
  3590  001284                     __end_of_ConfigureOscillator:
  3591                           	opt stack 0
  3592                           pclatu	equ	0xFFB
  3593                           pclath	equ	0xFFA
  3594                           tblptru	equ	0xFF8
  3595                           tblptrh	equ	0xFF7
  3596                           tblptrl	equ	0xFF6
  3597                           tablat	equ	0xFF5
  3598                           prodh	equ	0xFF4
  3599                           prodl	equ	0xFF3
  3600                           intcon	equ	0xFF2
  3601                           postinc0	equ	0xFEE
  3602                           postdec0	equ	0xFED
  3603                           fsr0h	equ	0xFEA
  3604                           fsr0l	equ	0xFE9
  3605                           wreg	equ	0xFE8
  3606                           indf1	equ	0xFE7
  3607                           postinc1	equ	0xFE6
  3608                           fsr1h	equ	0xFE2
  3609                           fsr1l	equ	0xFE1
  3610                           bsr	equ	0xFE0
  3611                           indf2	equ	0xFDF
  3612                           postinc2	equ	0xFDE
  3613                           postdec2	equ	0xFDD
  3614                           plusw2	equ	0xFDB
  3615                           fsr2h	equ	0xFDA
  3616                           fsr2l	equ	0xFD9
  3617                           status	equ	0xFD8
  3618                           
  3619 ;; *************** function _ConfigureInterrupts *****************
  3620 ;; Defined at:
  3621 ;;		line 76 in file "system.c"
  3622 ;; Parameters:    Size  Location     Type
  3623 ;;		None
  3624 ;; Auto vars:     Size  Location     Type
  3625 ;;		None
  3626 ;; Return value:  Size  Location     Type
  3627 ;;		None               void
  3628 ;; Registers used:
  3629 ;;		wreg, status,2
  3630 ;; Tracked objects:
  3631 ;;		On entry : 0/0
  3632 ;;		On exit  : 0/0
  3633 ;;		Unchanged: 0/0
  3634 ;; Data sizes:     COMRAM   BANK0   BANK1   BANK2   BANK3   BANK4   BANK5   BANK6   BANK7   BANK8   BANK9  BANK10  BANK1
      +1  BANK12  BANK13  BANK14
  3635 ;;      Params:         0       0       0       0       0       0       0       0       0       0       0       0       
      +0       0       0       0
  3636 ;;      Locals:         0       0       0       0       0       0       0       0       0       0       0       0       
      +0       0       0       0
  3637 ;;      Temps:          0       0       0       0       0       0       0       0       0       0       0       0       
      +0       0       0       0
  3638 ;;      Totals:         0       0       0       0       0       0       0       0       0       0       0       0       
      +0       0       0       0
  3639 ;;Total ram usage:        0 bytes
  3640 ;; Hardware stack levels used:    1
  3641 ;; Hardware stack levels required when called:    4
  3642 ;; This function calls:
  3643 ;;		Nothing
  3644 ;; This function is called by:
  3645 ;;		_main
  3646 ;; This function uses a non-reentrant model
  3647 ;;
  3648                           
  3649                           	psect	text13
  3650  00107E                     __ptext13:
  3651                           	opt stack 0
  3652  00107E                     _ConfigureInterrupts:
  3653                           	opt stack 26
  3654                           
  3655                           ;system.c: 80: RCONbits.IPEN = 1;
  3656                           
  3657                           ;incstack = 0
  3658  00107E  8ED0               	bsf	4048,7,c	;volatile
  3659                           
  3660                           ;system.c: 82: INTCON = 0b00100000;
  3661  001080  0E20               	movlw	32
  3662  001082  6EF2               	movwf	intcon,c	;volatile
  3663                           
  3664                           ;system.c: 83: INTCON2 = 0b11111000;
  3665  001084  0EF8               	movlw	248
  3666  001086  6EF1               	movwf	intcon2,c	;volatile
  3667                           
  3668                           ;system.c: 84: INTCON3 = 0b00000000;
  3669  001088  0E00               	movlw	0
  3670  00108A  6EF0               	movwf	intcon3,c	;volatile
  3671                           
  3672                           ;system.c: 86: PIR1 = 0;
  3673  00108C  0E00               	movlw	0
  3674  00108E  6E9E               	movwf	3998,c	;volatile
  3675                           
  3676                           ;system.c: 87: PIR2 = 0;
  3677  001090  0E00               	movlw	0
  3678  001092  6EA1               	movwf	4001,c	;volatile
  3679                           
  3680                           ;system.c: 88: PIR3 = 0;
  3681  001094  0E00               	movlw	0
  3682  001096  6EA4               	movwf	4004,c	;volatile
  3683                           
  3684                           ;system.c: 89: PIR4 = 0;
  3685  001098  0E00               	movlw	0
  3686  00109A  6EB7               	movwf	4023,c	;volatile
  3687                           
  3688                           ;system.c: 90: PIR5 = 0;
  3689  00109C  0E00               	movlw	0
  3690  00109E  6E77               	movwf	3959,c	;volatile
  3691                           
  3692                           ;system.c: 92: PIE1 = 0;
  3693  0010A0  0E00               	movlw	0
  3694  0010A2  6E9D               	movwf	3997,c	;volatile
  3695                           
  3696                           ;system.c: 93: PIE2 = 0;
  3697  0010A4  0E00               	movlw	0
  3698  0010A6  6EA0               	movwf	4000,c	;volatile
  3699                           
  3700                           ;system.c: 94: PIE3 = 0;
  3701  0010A8  0E00               	movlw	0
  3702  0010AA  6EA3               	movwf	4003,c	;volatile
  3703                           
  3704                           ;system.c: 95: PIE4 = 0;
  3705  0010AC  0E00               	movlw	0
  3706  0010AE  6EB6               	movwf	4022,c	;volatile
  3707                           
  3708                           ;system.c: 96: PIE5 = 0b00000011;
  3709  0010B0  0E03               	movlw	3
  3710  0010B2  6E76               	movwf	3958,c	;volatile
  3711                           
  3712                           ;system.c: 98: IPR1= 0 ;
  3713  0010B4  0E00               	movlw	0
  3714  0010B6  6E9F               	movwf	3999,c	;volatile
  3715                           
  3716                           ;system.c: 99: IPR2= 0 ;
  3717  0010B8  0E00               	movlw	0
  3718  0010BA  6EA2               	movwf	4002,c	;volatile
  3719                           
  3720                           ;system.c: 100: IPR3= 0 ;
  3721  0010BC  0E00               	movlw	0
  3722  0010BE  6EA5               	movwf	4005,c	;volatile
  3723                           
  3724                           ;system.c: 101: IPR4= 0 ;
  3725  0010C0  0E00               	movlw	0
  3726  0010C2  6EB8               	movwf	4024,c	;volatile
  3727                           
  3728                           ;system.c: 102: IPR5= 0b00000011 ;
  3729  0010C4  0E03               	movlw	3
  3730  0010C6  6E78               	movwf	3960,c	;volatile
  3731                           
  3732                           ;system.c: 104: INTCONbits.GIE=1;
  3733  0010C8  8EF2               	bsf	intcon,7,c	;volatile
  3734                           
  3735                           ;system.c: 105: INTCONbits.PEIE=1;
  3736  0010CA  8CF2               	bsf	intcon,6,c	;volatile
  3737  0010CC  0012               	return	
  3738  0010CE                     __end_of_ConfigureInterrupts:
  3739                           	opt stack 0
  3740                           pclatu	equ	0xFFB
  3741                           pclath	equ	0xFFA
  3742                           tblptru	equ	0xFF8
  3743                           tblptrh	equ	0xFF7
  3744                           tblptrl	equ	0xFF6
  3745                           tablat	equ	0xFF5
  3746                           prodh	equ	0xFF4
  3747                           prodl	equ	0xFF3
  3748                           intcon	equ	0xFF2
  3749                           intcon2	equ	0xFF1
  3750                           intcon3	equ	0xFF0
  3751                           postinc0	equ	0xFEE
  3752                           postdec0	equ	0xFED
  3753                           fsr0h	equ	0xFEA
  3754                           fsr0l	equ	0xFE9
  3755                           wreg	equ	0xFE8
  3756                           indf1	equ	0xFE7
  3757                           postinc1	equ	0xFE6
  3758                           fsr1h	equ	0xFE2
  3759                           fsr1l	equ	0xFE1
  3760                           bsr	equ	0xFE0
  3761                           indf2	equ	0xFDF
  3762                           postinc2	equ	0xFDE
  3763                           postdec2	equ	0xFDD
  3764                           plusw2	equ	0xFDB
  3765                           fsr2h	equ	0xFDA
  3766                           fsr2l	equ	0xFD9
  3767                           status	equ	0xFD8
  3768                           
  3769 ;; *************** function _ConfigureGPIO *****************
  3770 ;; Defined at:
  3771 ;;		line 43 in file "system.c"
  3772 ;; Parameters:    Size  Location     Type
  3773 ;;		None
  3774 ;; Auto vars:     Size  Location     Type
  3775 ;;		None
  3776 ;; Return value:  Size  Location     Type
  3777 ;;		None               void
  3778 ;; Registers used:
  3779 ;;		wreg, status,2
  3780 ;; Tracked objects:
  3781 ;;		On entry : 0/0
  3782 ;;		On exit  : 0/0
  3783 ;;		Unchanged: 0/0
  3784 ;; Data sizes:     COMRAM   BANK0   BANK1   BANK2   BANK3   BANK4   BANK5   BANK6   BANK7   BANK8   BANK9  BANK10  BANK1
      +1  BANK12  BANK13  BANK14
  3785 ;;      Params:         0       0       0       0       0       0       0       0       0       0       0       0       
      +0       0       0       0
  3786 ;;      Locals:         0       0       0       0       0       0       0       0       0       0       0       0       
      +0       0       0       0
  3787 ;;      Temps:          0       0       0       0       0       0       0       0       0       0       0       0       
      +0       0       0       0
  3788 ;;      Totals:         0       0       0       0       0       0       0       0       0       0       0       0       
      +0       0       0       0
  3789 ;;Total ram usage:        0 bytes
  3790 ;; Hardware stack levels used:    1
  3791 ;; Hardware stack levels required when called:    4
  3792 ;; This function calls:
  3793 ;;		Nothing
  3794 ;; This function is called by:
  3795 ;;		_main
  3796 ;; This function uses a non-reentrant model
  3797 ;;
  3798                           
  3799                           	psect	text14
  3800  0011E0                     __ptext14:
  3801                           	opt stack 0
  3802  0011E0                     _ConfigureGPIO:
  3803                           	opt stack 26
  3804                           
  3805                           ;system.c: 46: ANCON0 = 0;
  3806                           
  3807                           ;incstack = 0
  3808  0011E0  0E00               	movlw	0
  3809  0011E2  010F               	movlb	15	; () banked
  3810  0011E4  010F               	movlb	15	; () banked
  3811  0011E6  6F5D               	movwf	93,b	;volatile
  3812                           
  3813                           ;system.c: 47: ANCON1 = 0;
  3814  0011E8  0E00               	movlw	0
  3815  0011EA  010F               	movlb	15	; () banked
  3816  0011EC  010F               	movlb	15	; () banked
  3817  0011EE  6F5C               	movwf	92,b	;volatile
  3818                           
  3819                           ;system.c: 50: TRISA = 0xF;
  3820  0011F0  0E0F               	movlw	15
  3821  0011F2  6E92               	movwf	3986,c	;volatile
  3822                           
  3823                           ;system.c: 53: TRISB = 0b11001000;
  3824  0011F4  0EC8               	movlw	200
  3825  0011F6  6E93               	movwf	3987,c	;volatile
  3826                           
  3827                           ; BSR set to: 15
  3828                           ;system.c: 54: LATBbits.LATB2=1;
  3829  0011F8  848A               	bsf	3978,2,c	;volatile
  3830                           
  3831                           ; BSR set to: 15
  3832                           ;system.c: 55: LATBbits.LATB5=1;
  3833  0011FA  8A8A               	bsf	3978,5,c	;volatile
  3834                           
  3835                           ; BSR set to: 15
  3836                           ;system.c: 57: LATBbits.LATB0=1;
  3837  0011FC  808A               	bsf	3978,0,c	;volatile
  3838                           
  3839                           ; BSR set to: 15
  3840                           ;system.c: 58: LATBbits.LATB1=1;
  3841  0011FE  828A               	bsf	3978,1,c	;volatile
  3842                           
  3843                           ; BSR set to: 15
  3844                           ;system.c: 59: LATBbits.LATB4=1;
  3845  001200  888A               	bsf	3978,4,c	;volatile
  3846                           
  3847                           ;system.c: 61: TRISC = 0b11110000;
  3848  001202  0EF0               	movlw	240
  3849  001204  6E94               	movwf	3988,c	;volatile
  3850                           
  3851                           ; BSR set to: 15
  3852                           ;system.c: 62: LATCbits.LATC2=0;
  3853  001206  948B               	bcf	3979,2,c	;volatile
  3854                           
  3855                           ; BSR set to: 15
  3856                           ;system.c: 64: LATCbits.LATC0=1;
  3857  001208  808B               	bsf	3979,0,c	;volatile
  3858                           
  3859                           ; BSR set to: 15
  3860                           ;system.c: 65: LATCbits.LATC1=1;
  3861  00120A  828B               	bsf	3979,1,c	;volatile
  3862                           
  3863                           ; BSR set to: 15
  3864                           ;system.c: 66: LATCbits.LATC3=1;
  3865  00120C  868B               	bsf	3979,3,c	;volatile
  3866                           
  3867                           ;system.c: 68: TRISD = 0b11000000;
  3868  00120E  0EC0               	movlw	192
  3869  001210  6E95               	movwf	3989,c	;volatile
  3870                           
  3871                           ;system.c: 69: LATD=0;
  3872  001212  0E00               	movlw	0
  3873  001214  6E8C               	movwf	3980,c	;volatile
  3874                           
  3875                           ;system.c: 71: TRISE = 0b00000000;
  3876  001216  0E00               	movlw	0
  3877  001218  6E96               	movwf	3990,c	;volatile
  3878                           
  3879                           ;system.c: 72: LATE = 0x00;
  3880  00121A  0E00               	movlw	0
  3881  00121C  6E8D               	movwf	3981,c	;volatile
  3882                           
  3883                           ; BSR set to: 15
  3884  00121E  0012               	return	
  3885  001220                     __end_of_ConfigureGPIO:
  3886                           	opt stack 0
  3887                           pclatu	equ	0xFFB
  3888                           pclath	equ	0xFFA
  3889                           tblptru	equ	0xFF8
  3890                           tblptrh	equ	0xFF7
  3891                           tblptrl	equ	0xFF6
  3892                           tablat	equ	0xFF5
  3893                           prodh	equ	0xFF4
  3894                           prodl	equ	0xFF3
  3895                           intcon	equ	0xFF2
  3896                           intcon2	equ	0xFF1
  3897                           intcon3	equ	0xFF0
  3898                           postinc0	equ	0xFEE
  3899                           postdec0	equ	0xFED
  3900                           fsr0h	equ	0xFEA
  3901                           fsr0l	equ	0xFE9
  3902                           wreg	equ	0xFE8
  3903                           indf1	equ	0xFE7
  3904                           postinc1	equ	0xFE6
  3905                           fsr1h	equ	0xFE2
  3906                           fsr1l	equ	0xFE1
  3907                           bsr	equ	0xFE0
  3908                           indf2	equ	0xFDF
  3909                           postinc2	equ	0xFDE
  3910                           postdec2	equ	0xFDD
  3911                           plusw2	equ	0xFDB
  3912                           fsr2h	equ	0xFDA
  3913                           fsr2l	equ	0xFD9
  3914                           status	equ	0xFD8
  3915                           
  3916 ;; *************** function _ConfigureCCP *****************
  3917 ;; Defined at:
  3918 ;;		line 137 in file "system.c"
  3919 ;; Parameters:    Size  Location     Type
  3920 ;;		None
  3921 ;; Auto vars:     Size  Location     Type
  3922 ;;		None
  3923 ;; Return value:  Size  Location     Type
  3924 ;;		None               void
  3925 ;; Registers used:
  3926 ;;		wreg, status,2
  3927 ;; Tracked objects:
  3928 ;;		On entry : 0/0
  3929 ;;		On exit  : 0/0
  3930 ;;		Unchanged: 0/0
  3931 ;; Data sizes:     COMRAM   BANK0   BANK1   BANK2   BANK3   BANK4   BANK5   BANK6   BANK7   BANK8   BANK9  BANK10  BANK1
      +1  BANK12  BANK13  BANK14
  3932 ;;      Params:         0       0       0       0       0       0       0       0       0       0       0       0       
      +0       0       0       0
  3933 ;;      Locals:         0       0       0       0       0       0       0       0       0       0       0       0       
      +0       0       0       0
  3934 ;;      Temps:          0       0       0       0       0       0       0       0       0       0       0       0       
      +0       0       0       0
  3935 ;;      Totals:         0       0       0       0       0       0       0       0       0       0       0       0       
      +0       0       0       0
  3936 ;;Total ram usage:        0 bytes
  3937 ;; Hardware stack levels used:    1
  3938 ;; Hardware stack levels required when called:    4
  3939 ;; This function calls:
  3940 ;;		Nothing
  3941 ;; This function is called by:
  3942 ;;		_main
  3943 ;; This function uses a non-reentrant model
  3944 ;;
  3945                           
  3946                           	psect	text15
  3947  0010CE                     __ptext15:
  3948                           	opt stack 0
  3949  0010CE                     _ConfigureCCP:
  3950                           	opt stack 26
  3951                           
  3952                           ;system.c: 139: CCP2CON = 0x0F;
  3953                           
  3954                           ; BSR set to: 15
  3955                           ;incstack = 0
  3956  0010CE  0E0F               	movlw	15
  3957  0010D0  010F               	movlb	15	; () banked
  3958  0010D2  010F               	movlb	15	; () banked
  3959  0010D4  6F50               	movwf	80,b	;volatile
  3960                           
  3961                           ;system.c: 140: CCP3CON = 0;
  3962  0010D6  0E00               	movlw	0
  3963  0010D8  010F               	movlb	15	; () banked
  3964  0010DA  010F               	movlb	15	; () banked
  3965  0010DC  6F4D               	movwf	77,b	;volatile
  3966                           
  3967                           ;system.c: 141: CCP4CON = 0;
  3968  0010DE  0E00               	movlw	0
  3969  0010E0  010F               	movlb	15	; () banked
  3970  0010E2  010F               	movlb	15	; () banked
  3971  0010E4  6F4A               	movwf	74,b	;volatile
  3972                           
  3973                           ;system.c: 142: CCP5CON = 0X0F;
  3974  0010E6  0E0F               	movlw	15
  3975  0010E8  010F               	movlb	15	; () banked
  3976  0010EA  010F               	movlb	15	; () banked
  3977  0010EC  6F47               	movwf	71,b	;volatile
  3978                           
  3979                           ;system.c: 144: CCPTMRS= 0b00000001;
  3980  0010EE  0E01               	movlw	1
  3981  0010F0  6E99               	movwf	3993,c	;volatile
  3982                           
  3983                           ;system.c: 150: CCPR2L = 0;
  3984  0010F2  0E00               	movlw	0
  3985  0010F4  010F               	movlb	15	; () banked
  3986  0010F6  010F               	movlb	15	; () banked
  3987  0010F8  6F51               	movwf	81,b	;volatile
  3988                           
  3989                           ;system.c: 151: CCPR5L = 50;
  3990  0010FA  0E32               	movlw	50
  3991  0010FC  010F               	movlb	15	; () banked
  3992  0010FE  010F               	movlb	15	; () banked
  3993  001100  6F48               	movwf	72,b	;volatile
  3994                           
  3995                           ; BSR set to: 15
  3996                           ;system.c: 153: T2CONbits.TMR2ON=1;
  3997  001102  84CA               	bsf	4042,2,c	;volatile
  3998                           
  3999                           ;system.c: 157: ECCP1CONbits.P1M = 0b10;
  4000  001104  50BB               	movf	4027,w,c	;volatile
  4001  001106  0B3F               	andlw	-193
  4002  001108  0980               	iorlw	128
  4003  00110A  6EBB               	movwf	4027,c	;volatile
  4004                           
  4005                           ; BSR set to: 15
  4006                           ;system.c: 158: ECCP1CONbits.CCP1M = 0b0000;
  4007  00110C  90BB               	bcf	4027,0,c	;volatile
  4008  00110E  92BB               	bcf	4027,1,c	;volatile
  4009  001110  94BB               	bcf	4027,2,c	;volatile
  4010  001112  96BB               	bcf	4027,3,c	;volatile
  4011                           
  4012                           ;system.c: 160: CCPR1L=0x7F;
  4013  001114  0E7F               	movlw	127
  4014  001116  6EBC               	movwf	4028,c	;volatile
  4015                           
  4016                           ; BSR set to: 15
  4017                           ;system.c: 162: T4CONbits.TMR4ON=1;
  4018  001118  8488               	bsf	3976,2,c	;volatile
  4019                           
  4020                           ; BSR set to: 15
  4021  00111A  0012               	return	
  4022  00111C                     __end_of_ConfigureCCP:
  4023                           	opt stack 0
  4024                           pclatu	equ	0xFFB
  4025                           pclath	equ	0xFFA
  4026                           tblptru	equ	0xFF8
  4027                           tblptrh	equ	0xFF7
  4028                           tblptrl	equ	0xFF6
  4029                           tablat	equ	0xFF5
  4030                           prodh	equ	0xFF4
  4031                           prodl	equ	0xFF3
  4032                           intcon	equ	0xFF2
  4033                           intcon2	equ	0xFF1
  4034                           intcon3	equ	0xFF0
  4035                           postinc0	equ	0xFEE
  4036                           postdec0	equ	0xFED
  4037                           fsr0h	equ	0xFEA
  4038                           fsr0l	equ	0xFE9
  4039                           wreg	equ	0xFE8
  4040                           indf1	equ	0xFE7
  4041                           postinc1	equ	0xFE6
  4042                           fsr1h	equ	0xFE2
  4043                           fsr1l	equ	0xFE1
  4044                           bsr	equ	0xFE0
  4045                           indf2	equ	0xFDF
  4046                           postinc2	equ	0xFDE
  4047                           postdec2	equ	0xFDD
  4048                           plusw2	equ	0xFDB
  4049                           fsr2h	equ	0xFDA
  4050                           fsr2l	equ	0xFD9
  4051                           status	equ	0xFD8
  4052                           
  4053 ;; *************** function _CANTxFifoInit *****************
  4054 ;; Defined at:
  4055 ;;		line 28 in file "Can_HL.c"
  4056 ;; Parameters:    Size  Location     Type
  4057 ;;		None
  4058 ;; Auto vars:     Size  Location     Type
  4059 ;;		None
  4060 ;; Return value:  Size  Location     Type
  4061 ;;		None               void
  4062 ;; Registers used:
  4063 ;;		status,2
  4064 ;; Tracked objects:
  4065 ;;		On entry : 0/0
  4066 ;;		On exit  : 0/0
  4067 ;;		Unchanged: 0/0
  4068 ;; Data sizes:     COMRAM   BANK0   BANK1   BANK2   BANK3   BANK4   BANK5   BANK6   BANK7   BANK8   BANK9  BANK10  BANK1
      +1  BANK12  BANK13  BANK14
  4069 ;;      Params:         0       0       0       0       0       0       0       0       0       0       0       0       
      +0       0       0       0
  4070 ;;      Locals:         0       0       0       0       0       0       0       0       0       0       0       0       
      +0       0       0       0
  4071 ;;      Temps:          0       1       0       0       0       0       0       0       0       0       0       0       
      +0       0       0       0
  4072 ;;      Totals:         0       1       0       0       0       0       0       0       0       0       0       0       
      +0       0       0       0
  4073 ;;Total ram usage:        1 bytes
  4074 ;; Hardware stack levels used:    1
  4075 ;; Hardware stack levels required when called:    4
  4076 ;; This function calls:
  4077 ;;		Nothing
  4078 ;; This function is called by:
  4079 ;;		_main
  4080 ;; This function uses a non-reentrant model
  4081 ;;
  4082                           
  4083                           	psect	text16
  4084  00111C                     __ptext16:
  4085                           	opt stack 0
  4086  00111C                     _CANTxFifoInit:
  4087                           	opt stack 26
  4088                           
  4089                           ;Can_HL.c: 30: CANTxFifo.FifoEmpty=1;
  4090                           
  4091                           ; BSR set to: 15
  4092                           ;incstack = 0
  4093  00111C  0100               	movlb	0	; () banked
  4094  00111E  6F6E               	movwf	??_CANTxFifoInit& (0+255),b
  4095  001120  0E01               	movlw	1
  4096  001122  0101               	movlb	1	; () banked
  4097  001124  0101               	movlb	1	; () banked
  4098  001126  6F8F               	movwf	(_CANTxFifo+143)& (0+255),b
  4099  001128  0100               	movlb	0	; () banked
  4100  00112A  516E               	movf	??_CANTxFifoInit& (0+255),w,b
  4101                           
  4102                           ;Can_HL.c: 31: CANTxFifo.Fifofull=0;
  4103  00112C  0100               	movlb	0	; () banked
  4104  00112E  6F6E               	movwf	??_CANTxFifoInit& (0+255),b
  4105  001130  0E00               	movlw	0
  4106  001132  0101               	movlb	1	; () banked
  4107  001134  0101               	movlb	1	; () banked
  4108  001136  6F8E               	movwf	(_CANTxFifo+142)& (0+255),b
  4109  001138  0100               	movlb	0	; () banked
  4110  00113A  516E               	movf	??_CANTxFifoInit& (0+255),w,b
  4111                           
  4112                           ;Can_HL.c: 32: CANTxFifo.LowIndex=0;
  4113  00113C  0100               	movlb	0	; () banked
  4114  00113E  6F6E               	movwf	??_CANTxFifoInit& (0+255),b
  4115  001140  0E00               	movlw	0
  4116  001142  0101               	movlb	1	; () banked
  4117  001144  0101               	movlb	1	; () banked
  4118  001146  6F8C               	movwf	(_CANTxFifo+140)& (0+255),b
  4119  001148  0100               	movlb	0	; () banked
  4120  00114A  516E               	movf	??_CANTxFifoInit& (0+255),w,b
  4121                           
  4122                           ;Can_HL.c: 33: CANTxFifo.HighIndex=0;
  4123  00114C  0100               	movlb	0	; () banked
  4124  00114E  6F6E               	movwf	??_CANTxFifoInit& (0+255),b
  4125  001150  0E00               	movlw	0
  4126  001152  0101               	movlb	1	; () banked
  4127  001154  0101               	movlb	1	; () banked
  4128  001156  6F8D               	movwf	(_CANTxFifo+141)& (0+255),b
  4129  001158  0100               	movlb	0	; () banked
  4130  00115A  516E               	movf	??_CANTxFifoInit& (0+255),w,b
  4131                           
  4132                           ; BSR set to: 0
  4133  00115C  0012               	return	
  4134  00115E                     __end_of_CANTxFifoInit:
  4135                           	opt stack 0
  4136                           pclatu	equ	0xFFB
  4137                           pclath	equ	0xFFA
  4138                           tblptru	equ	0xFF8
  4139                           tblptrh	equ	0xFF7
  4140                           tblptrl	equ	0xFF6
  4141                           tablat	equ	0xFF5
  4142                           prodh	equ	0xFF4
  4143                           prodl	equ	0xFF3
  4144                           intcon	equ	0xFF2
  4145                           intcon2	equ	0xFF1
  4146                           intcon3	equ	0xFF0
  4147                           postinc0	equ	0xFEE
  4148                           postdec0	equ	0xFED
  4149                           fsr0h	equ	0xFEA
  4150                           fsr0l	equ	0xFE9
  4151                           wreg	equ	0xFE8
  4152                           indf1	equ	0xFE7
  4153                           postinc1	equ	0xFE6
  4154                           fsr1h	equ	0xFE2
  4155                           fsr1l	equ	0xFE1
  4156                           bsr	equ	0xFE0
  4157                           indf2	equ	0xFDF
  4158                           postinc2	equ	0xFDE
  4159                           postdec2	equ	0xFDD
  4160                           plusw2	equ	0xFDB
  4161                           fsr2h	equ	0xFDA
  4162                           fsr2l	equ	0xFD9
  4163                           status	equ	0xFD8
  4164                           
  4165 ;; *************** function _CANRxFifoInit *****************
  4166 ;; Defined at:
  4167 ;;		line 36 in file "Can_HL.c"
  4168 ;; Parameters:    Size  Location     Type
  4169 ;;		None
  4170 ;; Auto vars:     Size  Location     Type
  4171 ;;		None
  4172 ;; Return value:  Size  Location     Type
  4173 ;;		None               void
  4174 ;; Registers used:
  4175 ;;		status,2
  4176 ;; Tracked objects:
  4177 ;;		On entry : 0/0
  4178 ;;		On exit  : 0/0
  4179 ;;		Unchanged: 0/0
  4180 ;; Data sizes:     COMRAM   BANK0   BANK1   BANK2   BANK3   BANK4   BANK5   BANK6   BANK7   BANK8   BANK9  BANK10  BANK1
      +1  BANK12  BANK13  BANK14
  4181 ;;      Params:         0       0       0       0       0       0       0       0       0       0       0       0       
      +0       0       0       0
  4182 ;;      Locals:         0       0       0       0       0       0       0       0       0       0       0       0       
      +0       0       0       0
  4183 ;;      Temps:          0       1       0       0       0       0       0       0       0       0       0       0       
      +0       0       0       0
  4184 ;;      Totals:         0       1       0       0       0       0       0       0       0       0       0       0       
      +0       0       0       0
  4185 ;;Total ram usage:        1 bytes
  4186 ;; Hardware stack levels used:    1
  4187 ;; Hardware stack levels required when called:    4
  4188 ;; This function calls:
  4189 ;;		Nothing
  4190 ;; This function is called by:
  4191 ;;		_main
  4192 ;; This function uses a non-reentrant model
  4193 ;;
  4194                           
  4195                           	psect	text17
  4196  00115E                     __ptext17:
  4197                           	opt stack 0
  4198  00115E                     _CANRxFifoInit:
  4199                           	opt stack 26
  4200                           
  4201                           ;Can_HL.c: 38: CANRxFifo.FifoEmpty=1;
  4202                           
  4203                           ; BSR set to: 0
  4204                           ;incstack = 0
  4205  00115E  0100               	movlb	0	; () banked
  4206  001160  6F6E               	movwf	??_CANRxFifoInit& (0+255),b
  4207  001162  0E01               	movlw	1
  4208  001164  0102               	movlb	2	; () banked
  4209  001166  0102               	movlb	2	; () banked
  4210  001168  6F8F               	movwf	(_CANRxFifo+143)& (0+255),b
  4211  00116A  0100               	movlb	0	; () banked
  4212  00116C  516E               	movf	??_CANRxFifoInit& (0+255),w,b
  4213                           
  4214                           ;Can_HL.c: 39: CANRxFifo.Fifofull=0;
  4215  00116E  0100               	movlb	0	; () banked
  4216  001170  6F6E               	movwf	??_CANRxFifoInit& (0+255),b
  4217  001172  0E00               	movlw	0
  4218  001174  0102               	movlb	2	; () banked
  4219  001176  0102               	movlb	2	; () banked
  4220  001178  6F8E               	movwf	(_CANRxFifo+142)& (0+255),b
  4221  00117A  0100               	movlb	0	; () banked
  4222  00117C  516E               	movf	??_CANRxFifoInit& (0+255),w,b
  4223                           
  4224                           ;Can_HL.c: 40: CANRxFifo.LowIndex=0;
  4225  00117E  0100               	movlb	0	; () banked
  4226  001180  6F6E               	movwf	??_CANRxFifoInit& (0+255),b
  4227  001182  0E00               	movlw	0
  4228  001184  0102               	movlb	2	; () banked
  4229  001186  0102               	movlb	2	; () banked
  4230  001188  6F8C               	movwf	(_CANRxFifo+140)& (0+255),b
  4231  00118A  0100               	movlb	0	; () banked
  4232  00118C  516E               	movf	??_CANRxFifoInit& (0+255),w,b
  4233                           
  4234                           ;Can_HL.c: 41: CANRxFifo.HighIndex=0;
  4235  00118E  0100               	movlb	0	; () banked
  4236  001190  6F6E               	movwf	??_CANRxFifoInit& (0+255),b
  4237  001192  0E00               	movlw	0
  4238  001194  0102               	movlb	2	; () banked
  4239  001196  0102               	movlb	2	; () banked
  4240  001198  6F8D               	movwf	(_CANRxFifo+141)& (0+255),b
  4241  00119A  0100               	movlb	0	; () banked
  4242  00119C  516E               	movf	??_CANRxFifoInit& (0+255),w,b
  4243                           
  4244                           ; BSR set to: 0
  4245  00119E  0012               	return	
  4246  0011A0                     __end_of_CANRxFifoInit:
  4247                           	opt stack 0
  4248                           pclatu	equ	0xFFB
  4249                           pclath	equ	0xFFA
  4250                           tblptru	equ	0xFF8
  4251                           tblptrh	equ	0xFF7
  4252                           tblptrl	equ	0xFF6
  4253                           tablat	equ	0xFF5
  4254                           prodh	equ	0xFF4
  4255                           prodl	equ	0xFF3
  4256                           intcon	equ	0xFF2
  4257                           intcon2	equ	0xFF1
  4258                           intcon3	equ	0xFF0
  4259                           postinc0	equ	0xFEE
  4260                           postdec0	equ	0xFED
  4261                           fsr0h	equ	0xFEA
  4262                           fsr0l	equ	0xFE9
  4263                           wreg	equ	0xFE8
  4264                           indf1	equ	0xFE7
  4265                           postinc1	equ	0xFE6
  4266                           fsr1h	equ	0xFE2
  4267                           fsr1l	equ	0xFE1
  4268                           bsr	equ	0xFE0
  4269                           indf2	equ	0xFDF
  4270                           postinc2	equ	0xFDE
  4271                           postdec2	equ	0xFDD
  4272                           plusw2	equ	0xFDB
  4273                           fsr2h	equ	0xFDA
  4274                           fsr2l	equ	0xFD9
  4275                           status	equ	0xFD8
  4276                           
  4277 ;; *************** function _high_isr *****************
  4278 ;; Defined at:
  4279 ;;		line 38 in file "interrupts.c"
  4280 ;; Parameters:    Size  Location     Type
  4281 ;;		None
  4282 ;; Auto vars:     Size  Location     Type
  4283 ;;  CANRxNewMess   14    0[BANK0 ] struct CANRxMsg
  4284 ;; Return value:  Size  Location     Type
  4285 ;;		None               void
  4286 ;; Registers used:
  4287 ;;		wreg, fsr0l, fsr0h, fsr1l, fsr1h, fsr1l, fsr1h, fsr2l, fsr2h, status,2, status,0, pclat, btemp, btemp+1, btemp+2, bt
      +emp+3, btemp+4, btemp+5, btemp+6, btemp+7, btemp+8, btemp+9, btemp+10, btemp+11, tosl, structret, tblptrl, tblptrh, tblp
      +tru, prodl, prodh, bsr, cstack
  4288 ;; Tracked objects:
  4289 ;;		On entry : 0/0
  4290 ;;		On exit  : 0/0
  4291 ;;		Unchanged: 0/0
  4292 ;; Data sizes:     COMRAM   BANK0   BANK1   BANK2   BANK3   BANK4   BANK5   BANK6   BANK7   BANK8   BANK9  BANK10  BANK1
      +1  BANK12  BANK13  BANK14
  4293 ;;      Params:         0       0       0       0       0       0       0       0       0       0       0       0       
      +0       0       0       0
  4294 ;;      Locals:         0      14       0       0       0       0       0       0       0       0       0       0       
      +0       0       0       0
  4295 ;;      Temps:         14       0       0       0       0       0       0       0       0       0       0       0       
      +0       0       0       0
  4296 ;;      Totals:        14      14       0       0       0       0       0       0       0       0       0       0       
      +0       0       0       0
  4297 ;;Total ram usage:       28 bytes
  4298 ;; Hardware stack levels used:    1
  4299 ;; Hardware stack levels required when called:    2
  4300 ;; This function calls:
  4301 ;;		_ECANReceiveMessage
  4302 ;;		_PutCANRxFifo
  4303 ;; This function is called by:
  4304 ;;		Interrupt level 2
  4305 ;; This function uses a non-reentrant model
  4306 ;;
  4307                           
  4308                           	psect	intcode
  4309  000008                     __pintcode:
  4310                           	opt stack 0
  4311  000008                     _high_isr:
  4312                           	opt stack 25
  4313                           
  4314                           ;incstack = 0
  4315  000008  CFFA F02B          	movff	pclath,??_high_isr
  4316  00000C  CFFB F02C          	movff	pclatu,??_high_isr+1
  4317  000010  EFF8  F006         	goto	int_func
  4318                           pclatu	equ	0xFFB
  4319                           pclath	equ	0xFFA
  4320                           tblptru	equ	0xFF8
  4321                           tblptrh	equ	0xFF7
  4322                           tblptrl	equ	0xFF6
  4323                           tablat	equ	0xFF5
  4324                           prodh	equ	0xFF4
  4325                           prodl	equ	0xFF3
  4326                           intcon	equ	0xFF2
  4327                           intcon2	equ	0xFF1
  4328                           intcon3	equ	0xFF0
  4329                           postinc0	equ	0xFEE
  4330                           postdec0	equ	0xFED
  4331                           fsr0h	equ	0xFEA
  4332                           fsr0l	equ	0xFE9
  4333                           wreg	equ	0xFE8
  4334                           indf1	equ	0xFE7
  4335                           postinc1	equ	0xFE6
  4336                           fsr1h	equ	0xFE2
  4337                           fsr1l	equ	0xFE1
  4338                           bsr	equ	0xFE0
  4339                           indf2	equ	0xFDF
  4340                           postinc2	equ	0xFDE
  4341                           postdec2	equ	0xFDD
  4342                           plusw2	equ	0xFDB
  4343                           fsr2h	equ	0xFDA
  4344                           fsr2l	equ	0xFD9
  4345                           status	equ	0xFD8
  4346                           
  4347                           	psect	intcode_body
  4348  000DF0                     __pintcode_body:
  4349                           	opt stack 25
  4350  000DF0                     int_func:
  4351                           	opt stack 25
  4352  000DF0  CFE9 F02D          	movff	fsr0l,??_high_isr+2
  4353  000DF4  CFEA F02E          	movff	fsr0h,??_high_isr+3
  4354  000DF8  CFE1 F02F          	movff	fsr1l,??_high_isr+4
  4355  000DFC  CFE2 F030          	movff	fsr1h,??_high_isr+5
  4356  000E00  CFD9 F031          	movff	fsr2l,??_high_isr+6
  4357  000E04  CFDA F032          	movff	fsr2h,??_high_isr+7
  4358  000E08  CFF3 F033          	movff	prodl,??_high_isr+8
  4359  000E0C  CFF4 F034          	movff	prodh,??_high_isr+9
  4360  000E10  CFF6 F035          	movff	tblptrl,??_high_isr+10
  4361  000E14  CFF7 F036          	movff	tblptrh,??_high_isr+11
  4362  000E18  CFF8 F037          	movff	tblptru,??_high_isr+12
  4363  000E1C  CFF5 F038          	movff	tablat,??_high_isr+13
  4364                           
  4365                           ;interrupts.c: 48: struct CANRxMsg CANRxNewMessage;
  4366                           ;interrupts.c: 55: if(PIR5bits.RXB0IF==1 | PIR5bits.RXB1IF==1)
  4367  000E20  0E00               	movlw	0
  4368  000E22  B077               	btfsc	3959,0,c	;volatile
  4369  000E24  0E01               	movlw	1
  4370  000E26  B277               	btfsc	3959,1,c	;volatile
  4371  000E28  0E01               	movlw	1
  4372  000E2A  A0E8               	btfss	wreg,0,c
  4373  000E2C  D027               	goto	i2l24
  4374                           
  4375                           ;interrupts.c: 56: {
  4376                           ;interrupts.c: 58: ECANReceiveMessage(&CANRxNewMessage.id, CANRxNewMessage.data_RX, &CAN
      +                          RxNewMessage.dataLen, &CANRxNewMessage.flags);
  4377  000E2E  0100               	movlb	0	; () banked
  4378  000E30  0E00               	movlw	high high_isr@CANRxNewMessage
  4379  000E32  6E1D               	movwf	ECANReceiveMessage@id+1,c
  4380  000E34  0100               	movlb	0	; () banked
  4381  000E36  0E60               	movlw	low high_isr@CANRxNewMessage
  4382  000E38  6E1C               	movwf	ECANReceiveMessage@id,c
  4383  000E3A  0100               	movlb	0	; () banked
  4384  000E3C  0E00               	movlw	high (high_isr@CANRxNewMessage+4)
  4385  000E3E  6E1F               	movwf	ECANReceiveMessage@data+1,c
  4386  000E40  0100               	movlb	0	; () banked
  4387  000E42  0E64               	movlw	low (high_isr@CANRxNewMessage+4)
  4388  000E44  6E1E               	movwf	ECANReceiveMessage@data,c
  4389  000E46  0100               	movlb	0	; () banked
  4390  000E48  0E00               	movlw	high (high_isr@CANRxNewMessage+12)
  4391  000E4A  6E21               	movwf	ECANReceiveMessage@dataLen+1,c
  4392  000E4C  0100               	movlb	0	; () banked
  4393  000E4E  0E6C               	movlw	low (high_isr@CANRxNewMessage+12)
  4394  000E50  6E20               	movwf	ECANReceiveMessage@dataLen,c
  4395  000E52  0100               	movlb	0	; () banked
  4396  000E54  0E00               	movlw	high (high_isr@CANRxNewMessage+13)
  4397  000E56  6E23               	movwf	ECANReceiveMessage@msgFlags+1,c
  4398  000E58  0100               	movlb	0	; () banked
  4399  000E5A  0E6D               	movlw	low (high_isr@CANRxNewMessage+13)
  4400  000E5C  6E22               	movwf	ECANReceiveMessage@msgFlags,c
  4401  000E5E  EC06  F005         	call	_ECANReceiveMessage	;wreg free
  4402                           
  4403                           ;interrupts.c: 59: PutCANRxFifo(CANRxNewMessage);
  4404  000E62  EE20  F060         	lfsr	2,high_isr@CANRxNewMessage
  4405  000E66  EE10  F013         	lfsr	1,PutCANRxFifo@PutMessage
  4406  000E6A  0E0E               	movlw	14
  4407  000E6C                     i2u132_41:
  4408  000E6C  CFDE FFE6          	movff	postinc2,postinc1
  4409  000E70  2EE8               	decfsz	wreg,f,c
  4410  000E72  D7FC               	goto	i2u132_41
  4411  000E74  EC00  F008         	call	_PutCANRxFifo	;wreg free
  4412                           
  4413                           ;interrupts.c: 61: PIR5bits.RXB0IF=0;
  4414  000E78  9077               	bcf	3959,0,c	;volatile
  4415                           
  4416                           ;interrupts.c: 62: PIR5bits.RXB1IF=0;
  4417  000E7A  9277               	bcf	3959,1,c	;volatile
  4418  000E7C                     i2l24:
  4419  000E7C  C038  FFF5         	movff	??_high_isr+13,tablat
  4420  000E80  C037  FFF8         	movff	??_high_isr+12,tblptru
  4421  000E84  C036  FFF7         	movff	??_high_isr+11,tblptrh
  4422  000E88  C035  FFF6         	movff	??_high_isr+10,tblptrl
  4423  000E8C  C034  FFF4         	movff	??_high_isr+9,prodh
  4424  000E90  C033  FFF3         	movff	??_high_isr+8,prodl
  4425  000E94  C032  FFDA         	movff	??_high_isr+7,fsr2h
  4426  000E98  C031  FFD9         	movff	??_high_isr+6,fsr2l
  4427  000E9C  C030  FFE2         	movff	??_high_isr+5,fsr1h
  4428  000EA0  C02F  FFE1         	movff	??_high_isr+4,fsr1l
  4429  000EA4  C02E  FFEA         	movff	??_high_isr+3,fsr0h
  4430  000EA8  C02D  FFE9         	movff	??_high_isr+2,fsr0l
  4431  000EAC  C02C  FFFB         	movff	??_high_isr+1,pclatu
  4432  000EB0  C02B  FFFA         	movff	??_high_isr,pclath
  4433  000EB4  0011               	retfie		f
  4434  000EB6                     __end_of_high_isr:
  4435                           	opt stack 0
  4436                           pclatu	equ	0xFFB
  4437                           pclath	equ	0xFFA
  4438                           tblptru	equ	0xFF8
  4439                           tblptrh	equ	0xFF7
  4440                           tblptrl	equ	0xFF6
  4441                           tablat	equ	0xFF5
  4442                           prodh	equ	0xFF4
  4443                           prodl	equ	0xFF3
  4444                           intcon	equ	0xFF2
  4445                           intcon2	equ	0xFF1
  4446                           intcon3	equ	0xFF0
  4447                           postinc0	equ	0xFEE
  4448                           postdec0	equ	0xFED
  4449                           fsr0h	equ	0xFEA
  4450                           fsr0l	equ	0xFE9
  4451                           wreg	equ	0xFE8
  4452                           indf1	equ	0xFE7
  4453                           postinc1	equ	0xFE6
  4454                           fsr1h	equ	0xFE2
  4455                           fsr1l	equ	0xFE1
  4456                           bsr	equ	0xFE0
  4457                           indf2	equ	0xFDF
  4458                           postinc2	equ	0xFDE
  4459                           postdec2	equ	0xFDD
  4460                           plusw2	equ	0xFDB
  4461                           fsr2h	equ	0xFDA
  4462                           fsr2l	equ	0xFD9
  4463                           status	equ	0xFD8
  4464                           
  4465 ;; *************** function _PutCANRxFifo *****************
  4466 ;; Defined at:
  4467 ;;		line 96 in file "Can_HL.c"
  4468 ;; Parameters:    Size  Location     Type
  4469 ;;  PutMessage     14   18[COMRAM] struct CANRxMsg
  4470 ;; Auto vars:     Size  Location     Type
  4471 ;;		None
  4472 ;; Return value:  Size  Location     Type
  4473 ;;		None               void
  4474 ;; Registers used:
  4475 ;;		wreg, fsr1l, fsr1h, fsr2l, fsr2h, status,2, status,0, prodl, prodh
  4476 ;; Tracked objects:
  4477 ;;		On entry : 0/0
  4478 ;;		On exit  : 0/0
  4479 ;;		Unchanged: 0/0
  4480 ;; Data sizes:     COMRAM   BANK0   BANK1   BANK2   BANK3   BANK4   BANK5   BANK6   BANK7   BANK8   BANK9  BANK10  BANK1
      +1  BANK12  BANK13  BANK14
  4481 ;;      Params:        14       0       0       0       0       0       0       0       0       0       0       0       
      +0       0       0       0
  4482 ;;      Locals:         0       0       0       0       0       0       0       0       0       0       0       0       
      +0       0       0       0
  4483 ;;      Temps:          2       0       0       0       0       0       0       0       0       0       0       0       
      +0       0       0       0
  4484 ;;      Totals:        16       0       0       0       0       0       0       0       0       0       0       0       
      +0       0       0       0
  4485 ;;Total ram usage:       16 bytes
  4486 ;; Hardware stack levels used:    1
  4487 ;; This function calls:
  4488 ;;		Nothing
  4489 ;; This function is called by:
  4490 ;;		_high_isr
  4491 ;; This function uses a non-reentrant model
  4492 ;;
  4493                           
  4494                           	psect	text20
  4495  001000                     __ptext20:
  4496                           	opt stack 0
  4497  001000                     _PutCANRxFifo:
  4498                           	opt stack 26
  4499                           
  4500                           ;Can_HL.c: 99: if(!CANRxFifo.Fifofull)
  4501                           
  4502                           ;incstack = 0
  4503  001000  0102               	movlb	2	; () banked
  4504  001002  0102               	movlb	2	; () banked
  4505  001004  678E               	tstfsz	(_CANRxFifo+142)& (0+255),b
  4506  001006  0012               	return	
  4507                           
  4508                           ; BSR set to: 2
  4509                           ;Can_HL.c: 100: {
  4510                           ;Can_HL.c: 101: CANRxFifo.CANMsg[CANRxFifo.HighIndex]=PutMessage;
  4511  001008  EE20  F013         	lfsr	2,PutCANRxFifo@PutMessage
  4512  00100C  0102               	movlb	2	; () banked
  4513  00100E  0102               	movlb	2	; () banked
  4514  001010  518D               	movf	(_CANRxFifo+141)& (0+255),w,b
  4515  001012  0D0E               	mullw	14
  4516  001014  0E00               	movlw	low _CANRxFifo
  4517  001016  6E21               	movwf	??_PutCANRxFifo& (0+255),c
  4518  001018  0E02               	movlw	high _CANRxFifo
  4519  00101A  6E22               	movwf	(??_PutCANRxFifo+1)& (0+255),c
  4520  00101C  50F3               	movf	prodl,w,c
  4521  00101E  2621               	addwf	??_PutCANRxFifo,f,c
  4522  001020  50F4               	movf	prodh,w,c
  4523  001022  2222               	addwfc	??_PutCANRxFifo+1,f,c
  4524  001024  C021  FFE1         	movff	??_PutCANRxFifo,fsr1l
  4525  001028  C022  FFE2         	movff	??_PutCANRxFifo+1,fsr1h
  4526  00102C  0E0E               	movlw	14
  4527  00102E                     i2u144_41:
  4528  00102E  CFDE FFE6          	movff	postinc2,postinc1
  4529  001032  2EE8               	decfsz	wreg,f,c
  4530  001034  D7FC               	goto	i2u144_41
  4531                           
  4532                           ; BSR set to: 2
  4533                           ;Can_HL.c: 102: CANRxFifo.FifoEmpty=0;
  4534  001036  6E21               	movwf	??_PutCANRxFifo& (0+255),c
  4535  001038  0E00               	movlw	0
  4536  00103A  0102               	movlb	2	; () banked
  4537  00103C  0102               	movlb	2	; () banked
  4538  00103E  6F8F               	movwf	(_CANRxFifo+143)& (0+255),b
  4539  001040  5021               	movf	??_PutCANRxFifo& (0+255),w,c
  4540                           
  4541                           ; BSR set to: 2
  4542                           ;Can_HL.c: 103: CANRxFifo.HighIndex++;
  4543  001042  0102               	movlb	2	; () banked
  4544  001044  0102               	movlb	2	; () banked
  4545  001046  2B8D               	incf	(_CANRxFifo+141)& (0+255),f,b
  4546                           
  4547                           ; BSR set to: 2
  4548                           ;Can_HL.c: 105: if(CANRxFifo.HighIndex==(10))
  4549  001048  0102               	movlb	2	; () banked
  4550  00104A  0102               	movlb	2	; () banked
  4551  00104C  518D               	movf	(_CANRxFifo+141)& (0+255),w,b
  4552  00104E  0A0A               	xorlw	10
  4553  001050  A4D8               	btfss	status,2,c
  4554  001052  D006               	goto	i2l2118
  4555                           
  4556                           ; BSR set to: 2
  4557                           ;Can_HL.c: 106: CANRxFifo.HighIndex=0;
  4558  001054  6E21               	movwf	??_PutCANRxFifo& (0+255),c
  4559  001056  0E00               	movlw	0
  4560  001058  0102               	movlb	2	; () banked
  4561  00105A  0102               	movlb	2	; () banked
  4562  00105C  6F8D               	movwf	(_CANRxFifo+141)& (0+255),b
  4563  00105E  5021               	movf	??_PutCANRxFifo& (0+255),w,c
  4564  001060                     i2l2118:
  4565                           
  4566                           ; BSR set to: 2
  4567                           ;Can_HL.c: 108: if(CANRxFifo.HighIndex==CANRxFifo.LowIndex)
  4568  001060  0102               	movlb	2	; () banked
  4569  001062  0102               	movlb	2	; () banked
  4570  001064  518C               	movf	(_CANRxFifo+140)& (0+255),w,b
  4571  001066  0102               	movlb	2	; () banked
  4572  001068  EE22  F08D         	lfsr	2,_CANRxFifo+141
  4573  00106C  62DF               	cpfseq	indf2,c
  4574  00106E  0012               	return	
  4575                           
  4576                           ; BSR set to: 2
  4577                           ;Can_HL.c: 109: CANRxFifo.Fifofull=1;
  4578  001070  6E21               	movwf	??_PutCANRxFifo& (0+255),c
  4579  001072  0E01               	movlw	1
  4580  001074  0102               	movlb	2	; () banked
  4581  001076  0102               	movlb	2	; () banked
  4582  001078  6F8E               	movwf	(_CANRxFifo+142)& (0+255),b
  4583  00107A  5021               	movf	??_PutCANRxFifo& (0+255),w,c
  4584  00107C  0012               	return	
  4585  00107E                     __end_of_PutCANRxFifo:
  4586                           	opt stack 0
  4587                           pclatu	equ	0xFFB
  4588                           pclath	equ	0xFFA
  4589                           tblptru	equ	0xFF8
  4590                           tblptrh	equ	0xFF7
  4591                           tblptrl	equ	0xFF6
  4592                           tablat	equ	0xFF5
  4593                           prodh	equ	0xFF4
  4594                           prodl	equ	0xFF3
  4595                           intcon	equ	0xFF2
  4596                           intcon2	equ	0xFF1
  4597                           intcon3	equ	0xFF0
  4598                           postinc0	equ	0xFEE
  4599                           postdec0	equ	0xFED
  4600                           fsr0h	equ	0xFEA
  4601                           fsr0l	equ	0xFE9
  4602                           wreg	equ	0xFE8
  4603                           indf1	equ	0xFE7
  4604                           postinc1	equ	0xFE6
  4605                           fsr1h	equ	0xFE2
  4606                           fsr1l	equ	0xFE1
  4607                           bsr	equ	0xFE0
  4608                           indf2	equ	0xFDF
  4609                           postinc2	equ	0xFDE
  4610                           postdec2	equ	0xFDD
  4611                           plusw2	equ	0xFDB
  4612                           fsr2h	equ	0xFDA
  4613                           fsr2l	equ	0xFD9
  4614                           status	equ	0xFD8
  4615                           
  4616 ;; *************** function _ECANReceiveMessage *****************
  4617 ;; Defined at:
  4618 ;;		line 796 in file "ECANPoll.c"
  4619 ;; Parameters:    Size  Location     Type
  4620 ;;  id              2   27[COMRAM] PTR unsigned long 
  4621 ;;		 -> high_isr@CANRxNewMessage(14), 
  4622 ;;  data            2   29[COMRAM] PTR unsigned char 
  4623 ;;		 -> high_isr@CANRxNewMessage(14), 
  4624 ;;  dataLen         2   31[COMRAM] PTR unsigned char 
  4625 ;;		 -> high_isr@CANRxNewMessage(14), 
  4626 ;;  msgFlags        2   33[COMRAM] PTR enum E19298
  4627 ;;		 -> high_isr@CANRxNewMessage(14), 
  4628 ;; Auto vars:     Size  Location     Type
  4629 ;;  ptr             2   39[COMRAM] PTR unsigned char 
  4630 ;;		 -> RXB1CON(1), RXB0CON(1), 
  4631 ;;  savedPtr        2   36[COMRAM] PTR unsigned char 
  4632 ;;		 -> RXB1CON(1), RXB0CON(1), 
  4633 ;;  temp            1   41[COMRAM] struct .
  4634 ;;  i               1   38[COMRAM] unsigned char 
  4635 ;; Return value:  Size  Location     Type
  4636 ;;                  1    wreg      enum E18559
  4637 ;; Registers used:
  4638 ;;		wreg, fsr1l, fsr1h, fsr2l, fsr2h, status,2, status,0, cstack
  4639 ;; Tracked objects:
  4640 ;;		On entry : 0/0
  4641 ;;		On exit  : 0/0
  4642 ;;		Unchanged: 0/0
  4643 ;; Data sizes:     COMRAM   BANK0   BANK1   BANK2   BANK3   BANK4   BANK5   BANK6   BANK7   BANK8   BANK9  BANK10  BANK1
      +1  BANK12  BANK13  BANK14
  4644 ;;      Params:         8       0       0       0       0       0       0       0       0       0       0       0       
      +0       0       0       0
  4645 ;;      Locals:         6       0       0       0       0       0       0       0       0       0       0       0       
      +0       0       0       0
  4646 ;;      Temps:          1       0       0       0       0       0       0       0       0       0       0       0       
      +0       0       0       0
  4647 ;;      Totals:        15       0       0       0       0       0       0       0       0       0       0       0       
      +0       0       0       0
  4648 ;;Total ram usage:       15 bytes
  4649 ;; Hardware stack levels used:    1
  4650 ;; Hardware stack levels required when called:    1
  4651 ;; This function calls:
  4652 ;;		__RegsToCANID
  4653 ;; This function is called by:
  4654 ;;		_high_isr
  4655 ;; This function uses a non-reentrant model
  4656 ;;
  4657                           
  4658                           	psect	text21
  4659  000A0C                     __ptext21:
  4660                           	opt stack 0
  4661  000A0C                     _ECANReceiveMessage:
  4662                           	opt stack 25
  4663                           
  4664                           ;ECANPoll.c: 805: BYTE *ptr, *savedPtr;
  4665                           ;ECANPoll.c: 806: char i;
  4666                           ;ECANPoll.c: 807: BYTE_VAL temp;
  4667                           ;ECANPoll.c: 809: _ECANRxFilterHitInfo.Val = 0;
  4668                           
  4669                           ; BSR set to: 2
  4670                           ;incstack = 0
  4671  000A0C  6E24               	movwf	??_ECANReceiveMessage& (0+255),c
  4672  000A0E  0E00               	movlw	0
  4673  000A10  6E49               	movwf	__ECANRxFilterHitInfo,c
  4674  000A12  5024               	movf	??_ECANReceiveMessage& (0+255),w,c
  4675                           
  4676                           ;ECANPoll.c: 819: {
  4677                           ;ECANPoll.c: 821: if ( RXB0FUL )
  4678  000A14  AE60               	btfss	3936,7,c	;volatile
  4679  000A16  D013               	goto	i2l334
  4680                           
  4681                           ;ECANPoll.c: 822: {
  4682                           ;ECANPoll.c: 824: RXB0IF = 0;
  4683  000A18  9077               	bcf	3959,0,c	;volatile
  4684                           
  4685                           ;ECANPoll.c: 827: if ( RXB0OVFL )
  4686  000A1A  AE71               	btfss	3953,7,c	;volatile
  4687  000A1C  D007               	goto	i2l2042
  4688                           
  4689                           ;ECANPoll.c: 828: {
  4690                           ;ECANPoll.c: 829: *msgFlags |= ECAN_RX_OVERFLOW;
  4691  000A1E  C022  FFD9         	movff	ECANReceiveMessage@msgFlags,fsr2l
  4692  000A22  C023  FFDA         	movff	ECANReceiveMessage@msgFlags+1,fsr2h
  4693  000A26  0E00               	movlw	0
  4694  000A28  86DB               	bsf	plusw2,3,c
  4695                           
  4696                           ;ECANPoll.c: 830: RXB0OVFL = 0;
  4697  000A2A  9E71               	bcf	3953,7,c	;volatile
  4698  000A2C                     i2l2042:
  4699                           
  4700                           ;ECANPoll.c: 831: }
  4701                           ;ECANPoll.c: 833: _ECANRxFilterHitInfo.bits.b0 = RXB0FILHIT0;
  4702  000A2C  A060               	btfss	3936,0,c	;volatile
  4703  000A2E  D002               	bra	i2u135_45
  4704  000A30  8049               	bsf	__ECANRxFilterHitInfo,0,c
  4705  000A32  D001               	bra	i2u135_47
  4706  000A34                     i2u135_45:
  4707  000A34  9049               	bcf	__ECANRxFilterHitInfo,0,c
  4708  000A36                     i2u135_47:
  4709                           
  4710                           ;ECANPoll.c: 835: ptr = (BYTE*)&RXB0CON;
  4711  000A36  0E0F               	movlw	15	;volatile
  4712  000A38  6E29               	movwf	ECANReceiveMessage@ptr+1,c
  4713  000A3A  0E60               	movlw	96	;volatile
  4714  000A3C  D021               	goto	L2
  4715  000A3E                     i2l334:
  4716                           
  4717                           ;ECANPoll.c: 838: else if ( RXB1FUL )
  4718  000A3E  010F               	movlb	15
  4719  000A40  AF30               	btfss	48,7,b	;volatile
  4720  000A42  0012               	return	
  4721                           
  4722                           ;ECANPoll.c: 839: {
  4723                           ;ECANPoll.c: 841: RXB1IF = 0;
  4724  000A44  9277               	bcf	3959,1,c	;volatile
  4725                           
  4726                           ;ECANPoll.c: 844: if ( RXB1OVFL )
  4727  000A46  AC71               	btfss	3953,6,c	;volatile
  4728  000A48  D007               	goto	i2l2052
  4729                           
  4730                           ;ECANPoll.c: 845: {
  4731                           ;ECANPoll.c: 846: *msgFlags |= ECAN_RX_OVERFLOW;
  4732  000A4A  C022  FFD9         	movff	ECANReceiveMessage@msgFlags,fsr2l
  4733  000A4E  C023  FFDA         	movff	ECANReceiveMessage@msgFlags+1,fsr2h
  4734  000A52  0E00               	movlw	0
  4735  000A54  86DB               	bsf	plusw2,3,c
  4736                           
  4737                           ;ECANPoll.c: 847: RXB1OVFL = 0;
  4738  000A56  9C71               	bcf	3953,6,c	;volatile
  4739  000A58                     i2l2052:
  4740                           
  4741                           ;ECANPoll.c: 848: }
  4742                           ;ECANPoll.c: 850: _ECANRxFilterHitInfo.Val = RXB1CON & 0x07;
  4743  000A58  010F               	movlb	15	; () banked
  4744  000A5A  010F               	movlb	15	; () banked
  4745  000A5C  5130               	movf	48,w,b	;volatile
  4746  000A5E  0B07               	andlw	7
  4747  000A60  6E49               	movwf	__ECANRxFilterHitInfo,c
  4748                           
  4749                           ; BSR set to: 15
  4750                           ;ECANPoll.c: 852: if ( _ECANRxFilterHitInfo.Val < 0x02 )
  4751  000A62  0E02               	movlw	2
  4752  000A64  5C49               	subwf	__ECANRxFilterHitInfo,w,c
  4753  000A66  B0D8               	btfsc	status,0,c
  4754  000A68  D006               	goto	i2l2058
  4755                           
  4756                           ; BSR set to: 15
  4757                           ;ECANPoll.c: 853: *msgFlags |= ECAN_RX_DBL_BUFFERED;
  4758  000A6A  C022  FFD9         	movff	ECANReceiveMessage@msgFlags,fsr2l
  4759  000A6E  C023  FFDA         	movff	ECANReceiveMessage@msgFlags+1,fsr2h
  4760  000A72  0E00               	movlw	0
  4761  000A74  8EDB               	bsf	plusw2,7,c
  4762  000A76                     i2l2058:
  4763                           
  4764                           ; BSR set to: 15
  4765                           ;ECANPoll.c: 856: ptr = (BYTE*)&RXB1CON;
  4766  000A76  010F               	movlb	15	; () banked
  4767  000A78  0E0F               	movlw	15	;volatile
  4768  000A7A  6E29               	movwf	ECANReceiveMessage@ptr+1,c
  4769  000A7C  010F               	movlb	15	; () banked
  4770  000A7E  0E30               	movlw	48	;volatile
  4771  000A80                     L2:
  4772  000A80  6E28               	movwf	ECANReceiveMessage@ptr,c
  4773                           
  4774                           ;ECANPoll.c: 939: savedPtr = ptr;
  4775                           
  4776                           ; BSR set to: 15
  4777                           
  4778                           ;ECANPoll.c: 862: }
  4779                           ;ECANPoll.c: 938: _SaveMessage:
  4780                           
  4781                           ; BSR set to: 15
  4782                           ;ECANPoll.c: 861: goto _SaveMessage;
  4783                           
  4784                           ; BSR set to: 15
  4785                           
  4786                           ; BSR set to: 15
  4787                           ;ECANPoll.c: 858: else
  4788                           ;ECANPoll.c: 859: return FALSE;
  4789                           ;	Return value of _ECANReceiveMessage is never used
  4790                           
  4791                           ;ECANPoll.c: 857: }
  4792  000A82  C029  F026         	movff	ECANReceiveMessage@ptr+1,ECANReceiveMessage@savedPtr+1
  4793  000A86  C028  F025         	movff	ECANReceiveMessage@ptr,ECANReceiveMessage@savedPtr
  4794                           
  4795                           ;ECANPoll.c: 940: *msgFlags = 0;
  4796  000A8A  C022  FFD9         	movff	ECANReceiveMessage@msgFlags,fsr2l
  4797  000A8E  C023  FFDA         	movff	ECANReceiveMessage@msgFlags+1,fsr2h
  4798  000A92  0E00               	movlw	0
  4799  000A94  6EDF               	movwf	indf2,c
  4800                           
  4801                           ;ECANPoll.c: 943: temp.Val = *(ptr+5);
  4802  000A96  EE20 F005          	lfsr	2,5
  4803  000A9A  5028               	movf	ECANReceiveMessage@ptr,w,c
  4804  000A9C  26D9               	addwf	fsr2l,f,c
  4805  000A9E  5029               	movf	ECANReceiveMessage@ptr+1,w,c
  4806  000AA0  22DA               	addwfc	fsr2h,f,c
  4807  000AA2  50DF               	movf	indf2,w,c
  4808  000AA4  6E2A               	movwf	ECANReceiveMessage@temp,c
  4809                           
  4810                           ;ECANPoll.c: 944: *dataLen = temp.Val & 0b00001111;
  4811  000AA6  502A               	movf	ECANReceiveMessage@temp,w,c
  4812  000AA8  0B0F               	andlw	15
  4813  000AAA  C020  FFD9         	movff	ECANReceiveMessage@dataLen,fsr2l
  4814  000AAE  C021  FFDA         	movff	ECANReceiveMessage@dataLen+1,fsr2h
  4815  000AB2  6EDF               	movwf	indf2,c
  4816                           
  4817                           ;ECANPoll.c: 947: if ( temp.bits.b6 )
  4818  000AB4  AC2A               	btfss	ECANReceiveMessage@temp,6,c
  4819  000AB6  D006               	goto	i2l343
  4820                           
  4821                           ;ECANPoll.c: 948: *msgFlags |= ECAN_RX_RTR_FRAME;
  4822  000AB8  C022  FFD9         	movff	ECANReceiveMessage@msgFlags,fsr2l
  4823  000ABC  C023  FFDA         	movff	ECANReceiveMessage@msgFlags+1,fsr2h
  4824  000AC0  0E00               	movlw	0
  4825  000AC2  8CDB               	bsf	plusw2,6,c
  4826  000AC4                     i2l343:
  4827                           
  4828                           ;ECANPoll.c: 951: temp.Val = *(ptr+2);
  4829  000AC4  EE20 F002          	lfsr	2,2
  4830  000AC8  5028               	movf	ECANReceiveMessage@ptr,w,c
  4831  000ACA  26D9               	addwf	fsr2l,f,c
  4832  000ACC  5029               	movf	ECANReceiveMessage@ptr+1,w,c
  4833  000ACE  22DA               	addwfc	fsr2h,f,c
  4834  000AD0  50DF               	movf	indf2,w,c
  4835  000AD2  6E2A               	movwf	ECANReceiveMessage@temp,c
  4836                           
  4837                           ;ECANPoll.c: 952: if ( temp.bits.b3 )
  4838  000AD4  A62A               	btfss	ECANReceiveMessage@temp,3,c
  4839  000AD6  D009               	goto	i2l2078
  4840                           
  4841                           ;ECANPoll.c: 953: {
  4842                           ;ECANPoll.c: 954: *msgFlags |= ECAN_RX_XTD_FRAME;
  4843  000AD8  C022  FFD9         	movff	ECANReceiveMessage@msgFlags,fsr2l
  4844  000ADC  C023  FFDA         	movff	ECANReceiveMessage@msgFlags+1,fsr2h
  4845  000AE0  0E00               	movlw	0
  4846  000AE2  8ADB               	bsf	plusw2,5,c
  4847                           
  4848                           ;ECANPoll.c: 955: temp.Val = 1;
  4849  000AE4  6E24               	movwf	??_ECANReceiveMessage& (0+255),c
  4850  000AE6  0E01               	movlw	1
  4851  000AE8  D002               	goto	L3
  4852  000AEA                     i2l2078:
  4853                           
  4854                           ;ECANPoll.c: 957: else
  4855                           ;ECANPoll.c: 958: temp.Val = 0;
  4856  000AEA  6E24               	movwf	??_ECANReceiveMessage& (0+255),c
  4857  000AEC  0E00               	movlw	0
  4858  000AEE                     L3:
  4859  000AEE  6E2A               	movwf	ECANReceiveMessage@temp,c
  4860  000AF0  5024               	movf	??_ECANReceiveMessage& (0+255),w,c
  4861                           
  4862                           ;ECANPoll.c: 960: _RegsToCANID(ptr+1, id, temp.Val);
  4863  000AF2  0E01               	movlw	1
  4864  000AF4  2428               	addwf	ECANReceiveMessage@ptr,w,c
  4865  000AF6  6E13               	movwf	__RegsToCANID@ptr,c
  4866  000AF8  0E00               	movlw	0
  4867  000AFA  2029               	addwfc	ECANReceiveMessage@ptr+1,w,c
  4868  000AFC  6E14               	movwf	__RegsToCANID@ptr+1,c
  4869  000AFE  C01D  F016         	movff	ECANReceiveMessage@id+1,__RegsToCANID@val+1
  4870  000B02  C01C  F015         	movff	ECANReceiveMessage@id,__RegsToCANID@val
  4871  000B06  C02A  F017         	movff	ECANReceiveMessage@temp,__RegsToCANID@type
  4872  000B0A  EC4C  F004         	call	__RegsToCANID	;wreg free
  4873                           
  4874                           ;ECANPoll.c: 963: ptr += 6;
  4875  000B0E  0E06               	movlw	6
  4876  000B10  2628               	addwf	ECANReceiveMessage@ptr,f,c
  4877  000B12  0E00               	movlw	0
  4878  000B14  2229               	addwfc	ECANReceiveMessage@ptr+1,f,c
  4879                           
  4880                           ;ECANPoll.c: 964: temp.Val = *dataLen;
  4881  000B16  C020  FFD9         	movff	ECANReceiveMessage@dataLen,fsr2l
  4882  000B1A  C021  FFDA         	movff	ECANReceiveMessage@dataLen+1,fsr2h
  4883  000B1E  50DF               	movf	indf2,w,c
  4884  000B20  6E2A               	movwf	ECANReceiveMessage@temp,c
  4885                           
  4886                           ;ECANPoll.c: 965: for ( i = 0; i < temp.Val; i++ )
  4887  000B22  6E24               	movwf	??_ECANReceiveMessage& (0+255),c
  4888  000B24  0E00               	movlw	0
  4889  000B26  6E27               	movwf	ECANReceiveMessage@i,c
  4890  000B28  5024               	movf	??_ECANReceiveMessage& (0+255),w,c
  4891  000B2A  D00F               	goto	i2l2096
  4892  000B2C                     i2l2088:
  4893                           
  4894                           ;ECANPoll.c: 966: *data++ = *ptr++;
  4895  000B2C  C028  FFD9         	movff	ECANReceiveMessage@ptr,fsr2l
  4896  000B30  C029  FFDA         	movff	ECANReceiveMessage@ptr+1,fsr2h
  4897  000B34  C01E  FFE1         	movff	ECANReceiveMessage@data,fsr1l
  4898  000B38  C01F  FFE2         	movff	ECANReceiveMessage@data+1,fsr1h
  4899  000B3C  CFDF FFE7          	movff	indf2,indf1
  4900  000B40  4A28               	infsnz	ECANReceiveMessage@ptr,f,c
  4901  000B42  2A29               	incf	ECANReceiveMessage@ptr+1,f,c
  4902  000B44  4A1E               	infsnz	ECANReceiveMessage@data,f,c
  4903  000B46  2A1F               	incf	ECANReceiveMessage@data+1,f,c
  4904  000B48  2A27               	incf	ECANReceiveMessage@i,f,c
  4905  000B4A                     i2l2096:
  4906  000B4A  502A               	movf	ECANReceiveMessage@temp,w,c
  4907  000B4C  5C27               	subwf	ECANReceiveMessage@i,w,c
  4908  000B4E  A0D8               	btfss	status,0,c
  4909  000B50  D7ED               	goto	i2l2088
  4910                           
  4911                           ;ECANPoll.c: 969: if ( IRXIF )
  4912  000B52  AE77               	btfss	3959,7,c	;volatile
  4913  000B54  D007               	goto	i2l2102
  4914                           
  4915                           ;ECANPoll.c: 970: {
  4916                           ;ECANPoll.c: 971: *msgFlags |= ECAN_RX_INVALID_MSG;
  4917  000B56  C022  FFD9         	movff	ECANReceiveMessage@msgFlags,fsr2l
  4918  000B5A  C023  FFDA         	movff	ECANReceiveMessage@msgFlags+1,fsr2h
  4919  000B5E  0E00               	movlw	0
  4920  000B60  88DB               	bsf	plusw2,4,c
  4921                           
  4922                           ;ECANPoll.c: 972: IRXIF = 0;
  4923  000B62  9E77               	bcf	3959,7,c	;volatile
  4924  000B64                     i2l2102:
  4925                           
  4926                           ;ECANPoll.c: 973: }
  4927                           ;ECANPoll.c: 976: *savedPtr &= 0x7f;
  4928  000B64  C025  FFD9         	movff	ECANReceiveMessage@savedPtr,fsr2l
  4929  000B68  C026  FFDA         	movff	ECANReceiveMessage@savedPtr+1,fsr2h
  4930  000B6C  0E7F               	movlw	127
  4931  000B6E  16DF               	andwf	indf2,f,c
  4932  000B70  0012               	return	
  4933  000B72                     __end_of_ECANReceiveMessage:
  4934                           	opt stack 0
  4935                           pclatu	equ	0xFFB
  4936                           pclath	equ	0xFFA
  4937                           tblptru	equ	0xFF8
  4938                           tblptrh	equ	0xFF7
  4939                           tblptrl	equ	0xFF6
  4940                           tablat	equ	0xFF5
  4941                           prodh	equ	0xFF4
  4942                           prodl	equ	0xFF3
  4943                           intcon	equ	0xFF2
  4944                           intcon2	equ	0xFF1
  4945                           intcon3	equ	0xFF0
  4946                           postinc0	equ	0xFEE
  4947                           postdec0	equ	0xFED
  4948                           fsr0h	equ	0xFEA
  4949                           fsr0l	equ	0xFE9
  4950                           wreg	equ	0xFE8
  4951                           indf1	equ	0xFE7
  4952                           postinc1	equ	0xFE6
  4953                           fsr1h	equ	0xFE2
  4954                           fsr1l	equ	0xFE1
  4955                           bsr	equ	0xFE0
  4956                           indf2	equ	0xFDF
  4957                           postinc2	equ	0xFDE
  4958                           postdec2	equ	0xFDD
  4959                           plusw2	equ	0xFDB
  4960                           fsr2h	equ	0xFDA
  4961                           fsr2l	equ	0xFD9
  4962                           status	equ	0xFD8
  4963                           
  4964 ;; *************** function __RegsToCANID *****************
  4965 ;; Defined at:
  4966 ;;		line 1154 in file "ECANPoll.c"
  4967 ;; Parameters:    Size  Location     Type
  4968 ;;  ptr             2   18[COMRAM] PTR unsigned char 
  4969 ;;		 -> RXB1CON(1), RXB0CON(1), 
  4970 ;;  val             2   20[COMRAM] PTR unsigned long 
  4971 ;;		 -> high_isr@CANRxNewMessage(14), 
  4972 ;;  type            1   22[COMRAM] unsigned char 
  4973 ;; Auto vars:     Size  Location     Type
  4974 ;;  Value           2   25[COMRAM] PTR struct _CAN_MESSAGE_
  4975 ;;		 -> high_isr@CANRxNewMessage(14), 
  4976 ;; Return value:  Size  Location     Type
  4977 ;;		None               void
  4978 ;; Registers used:
  4979 ;;		wreg, fsr1l, fsr1h, fsr2l, fsr2h, status,2, status,0
  4980 ;; Tracked objects:
  4981 ;;		On entry : 0/0
  4982 ;;		On exit  : 0/0
  4983 ;;		Unchanged: 0/0
  4984 ;; Data sizes:     COMRAM   BANK0   BANK1   BANK2   BANK3   BANK4   BANK5   BANK6   BANK7   BANK8   BANK9  BANK10  BANK1
      +1  BANK12  BANK13  BANK14
  4985 ;;      Params:         5       0       0       0       0       0       0       0       0       0       0       0       
      +0       0       0       0
  4986 ;;      Locals:         2       0       0       0       0       0       0       0       0       0       0       0       
      +0       0       0       0
  4987 ;;      Temps:          2       0       0       0       0       0       0       0       0       0       0       0       
      +0       0       0       0
  4988 ;;      Totals:         9       0       0       0       0       0       0       0       0       0       0       0       
      +0       0       0       0
  4989 ;;Total ram usage:        9 bytes
  4990 ;; Hardware stack levels used:    1
  4991 ;; This function calls:
  4992 ;;		Nothing
  4993 ;; This function is called by:
  4994 ;;		_ECANReceiveMessage
  4995 ;; This function uses a non-reentrant model
  4996 ;;
  4997                           
  4998                           	psect	text22
  4999  000898                     __ptext22:
  5000                           	opt stack 0
  5001  000898                     __RegsToCANID:
  5002                           	opt stack 25
  5003                           
  5004                           ;ECANPoll.c: 1158: CAN_MESSAGE_ID *Value;
  5005                           ;ECANPoll.c: 1160: Value = (CAN_MESSAGE_ID*)val;
  5006                           
  5007                           ;incstack = 0
  5008  000898  C016  F01B         	movff	__RegsToCANID@val+1,__RegsToCANID@Value+1
  5009  00089C  C015  F01A         	movff	__RegsToCANID@val,__RegsToCANID@Value
  5010                           
  5011                           ;ECANPoll.c: 1162: if ( type == 0 )
  5012  0008A0  6617               	tstfsz	__RegsToCANID@type,c
  5013  0008A2  D04A               	goto	i2l2138
  5014                           
  5015                           ;ECANPoll.c: 1163: {
  5016                           ;ECANPoll.c: 1165: Value->BYTES.BYTE_1 = (*ptr << 3);
  5017  0008A4  C013  FFD9         	movff	__RegsToCANID@ptr,fsr2l
  5018  0008A8  C014  FFDA         	movff	__RegsToCANID@ptr+1,fsr2h
  5019  0008AC  50DF               	movf	indf2,w,c
  5020  0008AE  6E18               	movwf	??__RegsToCANID& (0+255),c
  5021  0008B0  90D8               	bcf	status,0,c
  5022  0008B2  3618               	rlcf	??__RegsToCANID,f,c
  5023  0008B4  90D8               	bcf	status,0,c
  5024  0008B6  3618               	rlcf	??__RegsToCANID,f,c
  5025  0008B8  90D8               	bcf	status,0,c
  5026  0008BA  3418               	rlcf	??__RegsToCANID,w,c
  5027  0008BC  C01A  FFD9         	movff	__RegsToCANID@Value,fsr2l
  5028  0008C0  C01B  FFDA         	movff	__RegsToCANID@Value+1,fsr2h
  5029  0008C4  6EDF               	movwf	indf2,c
  5030                           
  5031                           ;ECANPoll.c: 1166: Value->BYTES.BYTE_2 = *ptr >> 5;
  5032  0008C6  EE20 F001          	lfsr	2,1
  5033  0008CA  501A               	movf	__RegsToCANID@Value,w,c
  5034  0008CC  26D9               	addwf	fsr2l,f,c
  5035  0008CE  501B               	movf	__RegsToCANID@Value+1,w,c
  5036  0008D0  22DA               	addwfc	fsr2h,f,c
  5037  0008D2  C013  FFE1         	movff	__RegsToCANID@ptr,fsr1l
  5038  0008D6  C014  FFE2         	movff	__RegsToCANID@ptr+1,fsr1h
  5039  0008DA  50E7               	movf	indf1,w,c
  5040  0008DC  6E18               	movwf	??__RegsToCANID& (0+255),c
  5041  0008DE  0E05               	movlw	5
  5042  0008E0  6E19               	movwf	(??__RegsToCANID+1)& (0+255),c
  5043  0008E2                     i2u148_45:
  5044  0008E2  90D8               	bcf	status,0,c
  5045  0008E4  3218               	rrcf	??__RegsToCANID,f,c
  5046  0008E6  2E19               	decfsz	(??__RegsToCANID+1)& (0+255),f,c
  5047  0008E8  D7FC               	goto	i2u148_45
  5048  0008EA  5018               	movf	??__RegsToCANID,w,c
  5049  0008EC  6EDF               	movwf	indf2,c
  5050                           
  5051                           ;ECANPoll.c: 1167: ptr++;
  5052  0008EE  4A13               	infsnz	__RegsToCANID@ptr,f,c
  5053  0008F0  2A14               	incf	__RegsToCANID@ptr+1,f,c
  5054                           
  5055                           ;ECANPoll.c: 1168: Value->BYTES.BYTE_1 |= (*ptr >> 5);
  5056  0008F2  C013  FFD9         	movff	__RegsToCANID@ptr,fsr2l
  5057  0008F6  C014  FFDA         	movff	__RegsToCANID@ptr+1,fsr2h
  5058  0008FA  50DF               	movf	indf2,w,c
  5059  0008FC  6E18               	movwf	??__RegsToCANID& (0+255),c
  5060  0008FE  0E05               	movlw	5
  5061  000900  6E19               	movwf	(??__RegsToCANID+1)& (0+255),c
  5062  000902                     i2u149_45:
  5063  000902  90D8               	bcf	status,0,c
  5064  000904  3218               	rrcf	??__RegsToCANID,f,c
  5065  000906  2E19               	decfsz	(??__RegsToCANID+1)& (0+255),f,c
  5066  000908  D7FC               	goto	i2u149_45
  5067  00090A  C01A  FFD9         	movff	__RegsToCANID@Value,fsr2l
  5068  00090E  C01B  FFDA         	movff	__RegsToCANID@Value+1,fsr2h
  5069  000912  5018               	movf	??__RegsToCANID,w,c
  5070  000914  12DF               	iorwf	indf2,f,c
  5071                           
  5072                           ;ECANPoll.c: 1169: Value->BYTES.BYTE_3 = 0x00;
  5073  000916  EE20 F002          	lfsr	2,2
  5074  00091A  501A               	movf	__RegsToCANID@Value,w,c
  5075  00091C  26D9               	addwf	fsr2l,f,c
  5076  00091E  501B               	movf	__RegsToCANID@Value+1,w,c
  5077  000920  22DA               	addwfc	fsr2h,f,c
  5078  000922  0E00               	movlw	0
  5079  000924  6EDF               	movwf	indf2,c
  5080                           
  5081                           ;ECANPoll.c: 1170: Value->BYTES.BYTE_4 = 0x00;
  5082  000926  EE20 F003          	lfsr	2,3
  5083  00092A  501A               	movf	__RegsToCANID@Value,w,c
  5084  00092C  26D9               	addwf	fsr2l,f,c
  5085  00092E  501B               	movf	__RegsToCANID@Value+1,w,c
  5086  000930  22DA               	addwfc	fsr2h,f,c
  5087  000932  0E00               	movlw	0
  5088  000934  6EDF               	movwf	indf2,c
  5089                           
  5090                           ;ECANPoll.c: 1171: }
  5091  000936  0012               	return	
  5092  000938                     i2l2138:
  5093                           
  5094                           ;ECANPoll.c: 1172: else
  5095                           ;ECANPoll.c: 1173: {
  5096                           ;ECANPoll.c: 1175: Value->BYTES.BYTE_3 = (*ptr << 5);
  5097  000938  EE20 F002          	lfsr	2,2
  5098  00093C  501A               	movf	__RegsToCANID@Value,w,c
  5099  00093E  26D9               	addwf	fsr2l,f,c
  5100  000940  501B               	movf	__RegsToCANID@Value+1,w,c
  5101  000942  22DA               	addwfc	fsr2h,f,c
  5102  000944  C013  FFE1         	movff	__RegsToCANID@ptr,fsr1l
  5103  000948  C014  FFE2         	movff	__RegsToCANID@ptr+1,fsr1h
  5104  00094C  50E7               	movf	indf1,w,c
  5105  00094E  6E18               	movwf	??__RegsToCANID& (0+255),c
  5106  000950  0E05               	movlw	5
  5107  000952  6E19               	movwf	(??__RegsToCANID+1)& (0+255),c
  5108  000954                     i2u150_45:
  5109  000954  90D8               	bcf	status,0,c
  5110  000956  3618               	rlcf	??__RegsToCANID,f,c
  5111  000958  2E19               	decfsz	(??__RegsToCANID+1)& (0+255),f,c
  5112  00095A  D7FC               	goto	i2u150_45
  5113  00095C  5018               	movf	??__RegsToCANID,w,c
  5114  00095E  6EDF               	movwf	indf2,c
  5115                           
  5116                           ;ECANPoll.c: 1176: Value->BYTES.BYTE_4 = (*ptr >> 3);
  5117  000960  EE20 F003          	lfsr	2,3
  5118  000964  501A               	movf	__RegsToCANID@Value,w,c
  5119  000966  26D9               	addwf	fsr2l,f,c
  5120  000968  501B               	movf	__RegsToCANID@Value+1,w,c
  5121  00096A  22DA               	addwfc	fsr2h,f,c
  5122  00096C  C013  FFE1         	movff	__RegsToCANID@ptr,fsr1l
  5123  000970  C014  FFE2         	movff	__RegsToCANID@ptr+1,fsr1h
  5124  000974  50E7               	movf	indf1,w,c
  5125  000976  6E18               	movwf	??__RegsToCANID& (0+255),c
  5126  000978  90D8               	bcf	status,0,c
  5127  00097A  3218               	rrcf	??__RegsToCANID,f,c
  5128  00097C  90D8               	bcf	status,0,c
  5129  00097E  3218               	rrcf	??__RegsToCANID,f,c
  5130  000980  90D8               	bcf	status,0,c
  5131  000982  3018               	rrcf	??__RegsToCANID,w,c
  5132  000984  6EDF               	movwf	indf2,c
  5133                           
  5134                           ;ECANPoll.c: 1177: ptr++;
  5135  000986  4A13               	infsnz	__RegsToCANID@ptr,f,c
  5136  000988  2A14               	incf	__RegsToCANID@ptr+1,f,c
  5137                           
  5138                           ;ECANPoll.c: 1178: Value->BYTES.BYTE_3 |= (*ptr & 0x03);
  5139  00098A  C013  FFD9         	movff	__RegsToCANID@ptr,fsr2l
  5140  00098E  C014  FFDA         	movff	__RegsToCANID@ptr+1,fsr2h
  5141  000992  50DF               	movf	indf2,w,c
  5142  000994  6E18               	movwf	??__RegsToCANID& (0+255),c
  5143  000996  0E03               	movlw	3
  5144  000998  1618               	andwf	??__RegsToCANID,f,c
  5145  00099A  EE20 F002          	lfsr	2,2
  5146  00099E  501A               	movf	__RegsToCANID@Value,w,c
  5147  0009A0  26D9               	addwf	fsr2l,f,c
  5148  0009A2  501B               	movf	__RegsToCANID@Value+1,w,c
  5149  0009A4  22DA               	addwfc	fsr2h,f,c
  5150  0009A6  5018               	movf	??__RegsToCANID,w,c
  5151  0009A8  12DF               	iorwf	indf2,f,c
  5152                           
  5153                           ;ECANPoll.c: 1180: Value->BYTES.BYTE_3 |= ((*ptr & 0xe0) >> 3);
  5154  0009AA  C013  FFD9         	movff	__RegsToCANID@ptr,fsr2l
  5155  0009AE  C014  FFDA         	movff	__RegsToCANID@ptr+1,fsr2h
  5156  0009B2  50DF               	movf	indf2,w,c
  5157  0009B4  6E18               	movwf	??__RegsToCANID& (0+255),c
  5158  0009B6  90D8               	bcf	status,0,c
  5159  0009B8  3218               	rrcf	??__RegsToCANID,f,c
  5160  0009BA  90D8               	bcf	status,0,c
  5161  0009BC  3218               	rrcf	??__RegsToCANID,f,c
  5162  0009BE  90D8               	bcf	status,0,c
  5163  0009C0  3218               	rrcf	??__RegsToCANID,f,c
  5164  0009C2  0E1C               	movlw	28
  5165  0009C4  1618               	andwf	??__RegsToCANID,f,c
  5166  0009C6  EE20 F002          	lfsr	2,2
  5167  0009CA  501A               	movf	__RegsToCANID@Value,w,c
  5168  0009CC  26D9               	addwf	fsr2l,f,c
  5169  0009CE  501B               	movf	__RegsToCANID@Value+1,w,c
  5170  0009D0  22DA               	addwfc	fsr2h,f,c
  5171  0009D2  5018               	movf	??__RegsToCANID,w,c
  5172  0009D4  12DF               	iorwf	indf2,f,c
  5173                           
  5174                           ;ECANPoll.c: 1181: ptr++;
  5175  0009D6  4A13               	infsnz	__RegsToCANID@ptr,f,c
  5176  0009D8  2A14               	incf	__RegsToCANID@ptr+1,f,c
  5177                           
  5178                           ;ECANPoll.c: 1182: Value->BYTES.BYTE_2 = *ptr;
  5179  0009DA  C013  FFD9         	movff	__RegsToCANID@ptr,fsr2l
  5180  0009DE  C014  FFDA         	movff	__RegsToCANID@ptr+1,fsr2h
  5181  0009E2  EE10 F001          	lfsr	1,1
  5182  0009E6  501A               	movf	__RegsToCANID@Value,w,c
  5183  0009E8  26E1               	addwf	fsr1l,f,c
  5184  0009EA  501B               	movf	__RegsToCANID@Value+1,w,c
  5185  0009EC  22E2               	addwfc	fsr1h,f,c
  5186  0009EE  CFDF FFE7          	movff	indf2,indf1
  5187                           
  5188                           ;ECANPoll.c: 1183: ptr++;
  5189  0009F2  4A13               	infsnz	__RegsToCANID@ptr,f,c
  5190  0009F4  2A14               	incf	__RegsToCANID@ptr+1,f,c
  5191                           
  5192                           ;ECANPoll.c: 1184: Value->BYTES.BYTE_1 = *ptr;
  5193  0009F6  C013  FFD9         	movff	__RegsToCANID@ptr,fsr2l
  5194  0009FA  C014  FFDA         	movff	__RegsToCANID@ptr+1,fsr2h
  5195  0009FE  C01A  FFE1         	movff	__RegsToCANID@Value,fsr1l
  5196  000A02  C01B  FFE2         	movff	__RegsToCANID@Value+1,fsr1h
  5197  000A06  CFDF FFE7          	movff	indf2,indf1
  5198  000A0A  0012               	return	
  5199  000A0C                     __end_of__RegsToCANID:
  5200                           	opt stack 0
  5201  0000                     pclatu	equ	0xFFB
  5202                           pclath	equ	0xFFA
  5203                           tblptru	equ	0xFF8
  5204                           tblptrh	equ	0xFF7
  5205                           tblptrl	equ	0xFF6
  5206                           tablat	equ	0xFF5
  5207                           prodh	equ	0xFF4
  5208                           prodl	equ	0xFF3
  5209                           intcon	equ	0xFF2
  5210                           intcon2	equ	0xFF1
  5211                           intcon3	equ	0xFF0
  5212                           postinc0	equ	0xFEE
  5213                           postdec0	equ	0xFED
  5214                           fsr0h	equ	0xFEA
  5215                           fsr0l	equ	0xFE9
  5216                           wreg	equ	0xFE8
  5217                           indf1	equ	0xFE7
  5218                           postinc1	equ	0xFE6
  5219                           fsr1h	equ	0xFE2
  5220                           fsr1l	equ	0xFE1
  5221                           bsr	equ	0xFE0
  5222                           indf2	equ	0xFDF
  5223                           postinc2	equ	0xFDE
  5224                           postdec2	equ	0xFDD
  5225                           plusw2	equ	0xFDB
  5226                           fsr2h	equ	0xFDA
  5227                           fsr2l	equ	0xFD9
  5228                           status	equ	0xFD8
  5229                           pclatu	equ	0xFFB
  5230                           pclath	equ	0xFFA
  5231                           tblptru	equ	0xFF8
  5232                           tblptrh	equ	0xFF7
  5233                           tblptrl	equ	0xFF6
  5234                           tablat	equ	0xFF5
  5235                           prodh	equ	0xFF4
  5236                           prodl	equ	0xFF3
  5237                           intcon	equ	0xFF2
  5238                           intcon2	equ	0xFF1
  5239                           intcon3	equ	0xFF0
  5240                           postinc0	equ	0xFEE
  5241                           postdec0	equ	0xFED
  5242                           fsr0h	equ	0xFEA
  5243                           fsr0l	equ	0xFE9
  5244                           wreg	equ	0xFE8
  5245                           indf1	equ	0xFE7
  5246                           postinc1	equ	0xFE6
  5247                           fsr1h	equ	0xFE2
  5248                           fsr1l	equ	0xFE1
  5249                           bsr	equ	0xFE0
  5250                           indf2	equ	0xFDF
  5251                           postinc2	equ	0xFDE
  5252                           postdec2	equ	0xFDD
  5253                           plusw2	equ	0xFDB
  5254                           fsr2h	equ	0xFDA
  5255                           fsr2l	equ	0xFD9
  5256                           status	equ	0xFD8
  5257                           
  5258                           	psect	rparam
  5259  0000                     pclatu	equ	0xFFB
  5260                           pclath	equ	0xFFA
  5261                           tblptru	equ	0xFF8
  5262                           tblptrh	equ	0xFF7
  5263                           tblptrl	equ	0xFF6
  5264                           tablat	equ	0xFF5
  5265                           prodh	equ	0xFF4
  5266                           prodl	equ	0xFF3
  5267                           intcon	equ	0xFF2
  5268                           intcon2	equ	0xFF1
  5269                           intcon3	equ	0xFF0
  5270                           postinc0	equ	0xFEE
  5271                           postdec0	equ	0xFED
  5272                           fsr0h	equ	0xFEA
  5273                           fsr0l	equ	0xFE9
  5274                           wreg	equ	0xFE8
  5275                           indf1	equ	0xFE7
  5276                           postinc1	equ	0xFE6
  5277                           fsr1h	equ	0xFE2
  5278                           fsr1l	equ	0xFE1
  5279                           bsr	equ	0xFE0
  5280                           indf2	equ	0xFDF
  5281                           postinc2	equ	0xFDE
  5282                           postdec2	equ	0xFDD
  5283                           plusw2	equ	0xFDB
  5284                           fsr2h	equ	0xFDA
  5285                           fsr2l	equ	0xFD9
  5286                           status	equ	0xFD8


Data Sizes:
    Strings     0
    Constant    0
    Data        0
    BSS         317
    Persistent  0
    Stack       0

Auto Spaces:
    Space          Size  Autos    Used
    COMRAM           95     56      73
    BANK0           160     94     106
    BANK1           256      0     144
    BANK2           256      0     144
    BANK3           256      0       0
    BANK4           256      0       0
    BANK5           256      0       0
    BANK6           256      0       0
    BANK7           256      0       0
    BANK8           256      0       0
    BANK9           256      0       0
    BANK10          256      0       0
    BANK11          256      0       0
    BANK12          256      0       0
    BANK13          256      0       0
    BANK14           65      0       0

Pointer List with Targets:

    _RegsToCANID@ptr	PTR unsigned char  size(2) Largest target is 1
		 -> RXB1CON(ABS[1]), RXB0CON(ABS[1]), 

    _RegsToCANID@val	PTR unsigned long  size(2) Largest target is 14
		 -> high_isr@CANRxNewMessage(BANK0[14]), 

    _RegsToCANID@Value	PTR struct _CAN_MESSAGE_ID size(2) Largest target is 14
		 -> high_isr@CANRxNewMessage(BANK0[14]), 

    _CANIDToRegs@ptr	PTR unsigned char  size(2) Largest target is 1
		 -> TXB2CON(ABS[1]), TXB1CON(ABS[1]), TXB0CON(ABS[1]), 

    _CANIDToRegs@Value	PTR struct _CAN_MESSAGE_ID size(2) Largest target is 4
		 -> _CANIDToRegs@val(BANK0[4]), 

    ECANReceiveMessage@data	PTR unsigned char  size(2) Largest target is 14
		 -> high_isr@CANRxNewMessage(BANK0[14]), 

    ECANReceiveMessage@id	PTR unsigned long  size(2) Largest target is 14
		 -> high_isr@CANRxNewMessage(BANK0[14]), 

    ECANReceiveMessage@dataLen	PTR unsigned char  size(2) Largest target is 14
		 -> high_isr@CANRxNewMessage(BANK0[14]), 

    ECANReceiveMessage@savedPtr	PTR unsigned char  size(2) Largest target is 1
		 -> RXB1CON(ABS[1]), RXB0CON(ABS[1]), 

    ECANReceiveMessage@ptr	PTR unsigned char  size(2) Largest target is 1
		 -> RXB1CON(ABS[1]), RXB0CON(ABS[1]), 

    ECANReceiveMessage@msgFlags	PTR enum E19298 size(2) Largest target is 14
		 -> high_isr@CANRxNewMessage(BANK0[14]), 

    ECANSendMessage@data	PTR unsigned char  size(2) Largest target is 14
		 -> main@TempCANTxMsg(BANK0[14]), 

    ECANSendMessage@tempPtr	PTR unsigned char  size(2) Largest target is 1
		 -> TXB2CON(ABS[1]), TXB1CON(ABS[1]), TXB0CON(ABS[1]), 

    ECANSendMessage@ptr	PTR unsigned char  size(2) Largest target is 1
		 -> TXB2CON(ABS[1]), TXB1CON(ABS[1]), TXB0CON(ABS[1]), 

    ECANSendMessage@pb	PTR unsigned char [9] size(2) Largest target is 1
		 -> TXB2CON(ABS[1]), TXB1CON(ABS[1]), TXB0CON(ABS[1]), 


Critical Paths under _main in COMRAM

    None.

Critical Paths under _high_isr in COMRAM

    _high_isr->_ECANReceiveMessage
    _ECANReceiveMessage->__RegsToCANID

Critical Paths under _low_isr in COMRAM

    None.

Critical Paths under _main in BANK0

    _main->_ECANSendMessage
    _ECANSendMessage->__CANIDToRegs
    _ECANInitialize->_ECANSetOperationMode

Critical Paths under _high_isr in BANK0

    None.

Critical Paths under _low_isr in BANK0

    None.

Critical Paths under _main in BANK1

    None.

Critical Paths under _high_isr in BANK1

    None.

Critical Paths under _low_isr in BANK1

    None.

Critical Paths under _main in BANK2

    None.

Critical Paths under _high_isr in BANK2

    None.

Critical Paths under _low_isr in BANK2

    None.

Critical Paths under _main in BANK3

    None.

Critical Paths under _high_isr in BANK3

    None.

Critical Paths under _low_isr in BANK3

    None.

Critical Paths under _main in BANK4

    None.

Critical Paths under _high_isr in BANK4

    None.

Critical Paths under _low_isr in BANK4

    None.

Critical Paths under _main in BANK5

    None.

Critical Paths under _high_isr in BANK5

    None.

Critical Paths under _low_isr in BANK5

    None.

Critical Paths under _main in BANK6

    None.

Critical Paths under _high_isr in BANK6

    None.

Critical Paths under _low_isr in BANK6

    None.

Critical Paths under _main in BANK7

    None.

Critical Paths under _high_isr in BANK7

    None.

Critical Paths under _low_isr in BANK7

    None.

Critical Paths under _main in BANK8

    None.

Critical Paths under _high_isr in BANK8

    None.

Critical Paths under _low_isr in BANK8

    None.

Critical Paths under _main in BANK9

    None.

Critical Paths under _high_isr in BANK9

    None.

Critical Paths under _low_isr in BANK9

    None.

Critical Paths under _main in BANK10

    None.

Critical Paths under _high_isr in BANK10

    None.

Critical Paths under _low_isr in BANK10

    None.

Critical Paths under _main in BANK11

    None.

Critical Paths under _high_isr in BANK11

    None.

Critical Paths under _low_isr in BANK11

    None.

Critical Paths under _main in BANK12

    None.

Critical Paths under _high_isr in BANK12

    None.

Critical Paths under _low_isr in BANK12

    None.

Critical Paths under _main in BANK13

    None.

Critical Paths under _high_isr in BANK13

    None.

Critical Paths under _low_isr in BANK13

    None.

Critical Paths under _main in BANK14

    None.

Critical Paths under _high_isr in BANK14

    None.

Critical Paths under _low_isr in BANK14

    None.

Call Graph Tables:

 ---------------------------------------------------------------------------------
 (Depth) Function   	        Calls       Base Space   Used Autos Params    Refs
 ---------------------------------------------------------------------------------
 (0) _main                                                38    38      0    2474
                                             59 BANK0     35    35      0
                      _CANRxFifoInit
                      _CANTxFifoInit
                       _ConfigureCCP
                      _ConfigureGPIO
                _ConfigureInterrupts
                _ConfigureOscillator
                    _ConfigureTimers
                    _ECANFiltersInit
                     _ECANInitialize
                    _ECANSendMessage
                       _GetCANRxFifo
                       _GetCANTxFifo
                       _GetCanAdress
                       _PutCANTxFifo
                         _SystemTest
 ---------------------------------------------------------------------------------
 (1) _SystemTest                                           0     0      0       0
 ---------------------------------------------------------------------------------
 (1) _PutCANTxFifo                                        16     2     14     150
                                             14 BANK0     16     2     14
 ---------------------------------------------------------------------------------
 (1) _GetCanAdress                                         0     0      0       0
 ---------------------------------------------------------------------------------
 (1) _GetCANTxFifo                                        30    16     14      46
                                             14 BANK0     30    16     14
 ---------------------------------------------------------------------------------
 (1) _GetCANRxFifo                                        30    16     14      46
                                             14 BANK0     30    16     14
 ---------------------------------------------------------------------------------
 (1) _ECANSendMessage                                     34    26      8    1515
                                             25 BANK0     34    26      8
                       __CANIDToRegs
 ---------------------------------------------------------------------------------
 (2) __CANIDToRegs                                        11     4      7     668
                                             14 BANK0     11     4      7
 ---------------------------------------------------------------------------------
 (1) _ECANInitialize                                       0     0      0      44
               _ECANSetOperationMode
 ---------------------------------------------------------------------------------
 (2) _ECANSetOperationMode                                 1     1      0      44
                                             14 BANK0      1     1      0
 ---------------------------------------------------------------------------------
 (1) _ECANFiltersInit                                      4     4      0      45
                                             14 BANK0      4     4      0
 ---------------------------------------------------------------------------------
 (1) _ConfigureTimers                                      0     0      0       0
 ---------------------------------------------------------------------------------
 (1) _ConfigureOscillator                                  0     0      0       0
 ---------------------------------------------------------------------------------
 (1) _ConfigureInterrupts                                  0     0      0       0
 ---------------------------------------------------------------------------------
 (1) _ConfigureGPIO                                        0     0      0       0
 ---------------------------------------------------------------------------------
 (1) _ConfigureCCP                                         0     0      0       0
 ---------------------------------------------------------------------------------
 (1) _CANTxFifoInit                                        1     1      0       0
                                             14 BANK0      1     1      0
 ---------------------------------------------------------------------------------
 (1) _CANRxFifoInit                                        1     1      0       0
                                             14 BANK0      1     1      0
 ---------------------------------------------------------------------------------
 Estimated maximum stack depth 2
 ---------------------------------------------------------------------------------
 (Depth) Function   	        Calls       Base Space   Used Autos Params    Refs
 ---------------------------------------------------------------------------------
 (3) _low_isr                                             18    18      0       0
                                              0 COMRAM    18    18      0
 ---------------------------------------------------------------------------------
 Estimated maximum stack depth 3
 ---------------------------------------------------------------------------------
 (Depth) Function   	        Calls       Base Space   Used Autos Params    Refs
 ---------------------------------------------------------------------------------
 (4) _high_isr                                            28    28      0    1809
                                             42 COMRAM    14    14      0
                                              0 BANK0     14    14      0
                 _ECANReceiveMessage
                       _PutCANRxFifo
 ---------------------------------------------------------------------------------
 (5) _PutCANRxFifo                                        16     2     14     108
                                             18 COMRAM    16     2     14
 ---------------------------------------------------------------------------------
 (5) _ECANReceiveMessage                                  15     7      8    1464
                                             27 COMRAM    15     7      8
                       __RegsToCANID
 ---------------------------------------------------------------------------------
 (6) __RegsToCANID                                         9     4      5     681
                                             18 COMRAM     9     4      5
 ---------------------------------------------------------------------------------
 Estimated maximum stack depth 6
 ---------------------------------------------------------------------------------

 Call Graph Graphs:

 _main (ROOT)
   _CANRxFifoInit
   _CANTxFifoInit
   _ConfigureCCP
   _ConfigureGPIO
   _ConfigureInterrupts
   _ConfigureOscillator
   _ConfigureTimers
   _ECANFiltersInit
   _ECANInitialize
     _ECANSetOperationMode
   _ECANSendMessage
     __CANIDToRegs
   _GetCANRxFifo
   _GetCANTxFifo
   _GetCanAdress
   _PutCANTxFifo
   _SystemTest

 _low_isr (ROOT)

 _high_isr (ROOT)
   _ECANReceiveMessage
     __RegsToCANID
   _PutCANRxFifo

 Address spaces:
Name               Size   Autos  Total    Cost      Usage
BIGRAM             E40      0       0      35        0.0%
EEDATA             400      0       0       0        0.0%
BITBANK13          100      0       0      31        0.0%
BANK13             100      0       0      32        0.0%
BITBANK12          100      0       0      29        0.0%
BANK12             100      0       0      30        0.0%
BITBANK11          100      0       0      27        0.0%
BANK11             100      0       0      28        0.0%
BITBANK10          100      0       0      25        0.0%
BANK10             100      0       0      26        0.0%
BITBANK9           100      0       0      23        0.0%
BANK9              100      0       0      24        0.0%
BITBANK8           100      0       0      21        0.0%
BANK8              100      0       0      22        0.0%
BITBANK7           100      0       0      19        0.0%
BANK7              100      0       0      20        0.0%
BITBANK6           100      0       0      17        0.0%
BANK6              100      0       0      18        0.0%
BITBANK5           100      0       0      15        0.0%
BANK5              100      0       0      16        0.0%
BITBANK4           100      0       0      13        0.0%
BANK4              100      0       0      14        0.0%
BITBANK3           100      0       0      11        0.0%
BANK3              100      0       0      12        0.0%
BITBANK2           100      0       0       9        0.0%
BANK2              100      0      90      10       56.3%
BITBANK1           100      0       0       7        0.0%
BANK1              100      0      90       8       56.3%
BITBANK0            A0      0       0       4        0.0%
BANK0               A0     5E      6A       5       66.3%
BITCOMRAM           5F      0       0       0        0.0%
COMRAM              5F     38      49       1       76.8%
BITBANK14           41      0       0      33        0.0%
BANK14              41      0       0      34        0.0%
BITSFR_2             0      0       0      40        0.0%
SFR_2                0      0       0      40        0.0%
BITSFR_1             0      0       0      40        0.0%
SFR_1                0      0       0      40        0.0%
BITSFR               0      0       0      40        0.0%
SFR                  0      0       0      40        0.0%
STACK                0      0       0       2        0.0%
NULL                 0      0       0       0        0.0%
ABS                  0      0     1D3       6        0.0%
DATA                 0      0     1D3       3        0.0%
CODE                 0      0       0       0        0.0%


Microchip Technology PIC18 Macro Assembler V1.30 build 55553 
Symbol Table                                                                                   Thu Aug 07 10:48:00 2014

                           bsr 000FE0                    __CFG_BORV$3 000000              ??_ECANFiltersInit 006E  
                 __CFG_CP0$OFF 000000                   __CFG_CP1$OFF 000000                   __CFG_CP2$OFF 000000  
                 __CFG_CP3$OFF 000000          __end_of_CANRxFifoInit 11A0                            l323 079C  
                 __CFG_CPB$OFF 000000                            _PR2 000FCB                            _PR4 000FA9  
                 __CFG_CPD$OFF 000000                            u901 0190                            u915 020C  
                          u925 0284                            u951 0342                            u965 03C4  
                          u991 0482                            fsr0 000FE9                            prod 000FF3  
                          wreg 000FE8          __end_of_CANTxFifoInit 115E                           l2006 0596  
                         l1710 048E                           l1660 017E                           l1902 0FFC  
                         l1922 0C02                           l1930 0C1C                           l1870 0CDE  
                         l1918 0BE2                           l1944 0718                           l1696 0350  
                         l1866 0CBE                           l1972 082A                           l1980 0854  
                         l1964 07C8                           l1958 07A0                           l1878 0CF8  
                         l1994 1266                           l1898 0FDC                           l1988 0886  
                         u1101 0FA2                           u1021 04A6                           u1041 0C84  
                         u1141 0BA8                           u1071 0CEA                           u1305 05B4  
                         u1081 0D1C                           u1171 0C0E                           u1181 0C40  
                         _LATD 000F8C                           _LATE 000F8D                           u1285 0544  
                         u1517 0132                           u1295 057A                           u1527 0168  
                         _IPR1 000F9F                           _IPR2 000FA2                           _PIE1 000F9D  
                         _IPR3 000FA5                           _PIE2 000FA0                           _IPR4 000FB8  
                         _PIE3 000FA3                           _IPR5 000F78                           _PIE4 000FB6  
                         _PIE5 000F76                           i1l33 00DC                           i2l24 0E7C  
                         _PIR1 000F9E                           _PIR2 000FA1                           _PIR3 000FA4  
                         _PIR4 000FB7                           _PIR5 000F77               ??_ECANInitialize 006F  
                         _main 0126                           fsr0h 000FEA                           fsr1h 000FE2  
                         fsr0l 000FE9                           fsr2h 000FDA                           indf1 000FE7  
                         fsr1l 000FE1                           indf2 000FDF                           fsr2l 000FD9  
                         pclat 000FFA                           prodh 000FF4                           prodl 000FF3  
                         start 0122                  __CFG_IESO$OFF 000000                  __CFG_FOSC$HS1 000000  
          _ConfigureInterrupts 107E                  __CFG_MCLRE$ON 000000      ECANReceiveMessage@dataLen 0020  
                 _ECCP1CONbits 000FBB               __RegsToCANID@val 0015               __RegsToCANID@ptr 0013  
        __size_of_GetCANRxFifo 00DC                  __CFG_RETEN$ON 000000          __size_of_GetCANTxFifo 00DC  
                        ?_main 0001                          i2l334 0A3E                          i2l343 0AC4  
                        _IRXIF 007BBF                          _TMR0H 000FD7                          _TMR0L 000FD6  
                        _PORTA 000F80                          _TRISA 000F92                          _TRISB 000F93  
                        _TRISC 000F94                          _TRISD 000F95                          _TRISE 000F96  
         ?_ConfigureInterrupts 0001            _ConfigureOscillator 1276                  __CFG_WRT0$OFF 000000  
                __CFG_WRT1$OFF 000000                  __CFG_WRT2$OFF 000000                  __CFG_WRT3$OFF 000000  
               __CFG_EBTR0$OFF 000000                 __CFG_FCMEN$OFF 000000                 __CFG_EBTR1$OFF 000000  
               __CFG_EBTR2$OFF 000000                 __CFG_EBTR3$OFF 000000                  __CFG_WRTB$OFF 000000  
                __CFG_WRTC$OFF 000000                  __CFG_WRTD$OFF 000000                 __CFG_EBTRB$OFF 000000  
              __end_of_low_isr 0122                          tablat 000FF5                          plusw2 000FDB  
                        status 000FD8           ?_ConfigureOscillator 0001                   _GetCANRxFifo 0C4E  
                 _GetCANTxFifo 0B72           _ECANSetOperationMode 1256                _ConfigureTimers 11A0  
              __initialization 1220                   __end_of_main 04E0                 _LocalCanAdress 00C9  
            ??_ECANSendMessage 0081                         ??_main 009B           __end_of_ConfigureCCP 111C  
                __activetblptr 000000              __RegsToCANID@type 0017          ??_ConfigureInterrupts 006E  
               __CFG_PLLCFG$ON 000000     ECANReceiveMessage@msgFlags 0022     ECANReceiveMessage@savedPtr 0025  
        __size_of_GetCanAdress 0006                         _CANCON 000F6F                         _CCPR1L 000FBC  
                       _CCPR2L 000F51                         _CCPR5L 000F48                         _ANCON0 000F5D  
                       _ANCON1 000F5C                         _CIOCON 000F70                         i1l1612 009E  
                       _MDSEL0 007B96                         _MDSEL1 007B97                         i1l1630 00D4  
                       i1l1606 0082                         i1l1624 00C8                         i1l1618 00BC  
                       i2l2102 0B64                __CFG_BBSIZ$BB2K 000000                         i2l2042 0A2C  
                       i2l2052 0A58                         i2l2118 1060                         i2l2138 0938  
                       i2l2058 0A76                         i2l2078 0AEA                         i2l2088 0B2C  
                       i2l2096 0B4A                 __CFG_WDTEN$OFF 000000                         _INTCON 000FF2  
                       _RXB0IF 007BB8                         _RXB1IF 007BB9         ECANReceiveMessage@data 001E  
       ECANReceiveMessage@temp 002A          ??_ConfigureOscillator 006E          ?_ECANSetOperationMode 0001  
           __CANIDToRegs@Value 0077                 __CFG_PWRTEN$ON 000000                 __CFG_XINST$OFF 000000  
             __end_of_high_isr 0EB6                 __CFG_STVREN$ON 000000                         clear_0 1226  
                       clear_1 1232                         clear_2 123E                         clear_3 124A  
                 _GetCanAdress 1284                      ??_low_isr 0001                         tblptrh 000FF7  
                       tblptrl 000FF6                         tblptru 000FF8                  ?_PutCANRxFifo 0013  
                ?_PutCANTxFifo 006E        __end_of_ConfigureTimers 11E0                     __accesstop 0060  
      __end_of__initialization 1250                _ECANFiltersInit 0EB6                 __pcstackCOMRAM 0001  
                ?__RegsToCANID 0013    __size_of_ECANReceiveMessage 0166                     _SystemTest 128A  
               ??_PutCANRxFifo 0021                 ??_PutCANTxFifo 007C             __RegsToCANID@Value 001A  
        __end_of_ConfigureGPIO 1220                     __pbssBANK0 00BE                     __pbssBANK1 0100  
                   __pbssBANK2 0200         ??_ECANSetOperationMode 006E          __size_of_ConfigureCCP 004E  
     ECANSetOperationMode@mode 006E           __ECANRxFilterHitInfo 0049                        _CCP2CON 000F50  
                      _CCP3CON 000F4D                        _CCP4CON 000F4A                        _CCP5CON 000F47  
                      _CANSTAT 000F6E                 ??__RegsToCANID 0018                        _CCPTMRS 000F99  
                      _BRGCON1 000E43                        _BRGCON2 000E44                        _BRGCON3 000E45  
                      _INTCON2 000FF1                        _INTCON3 000FF0               __CFG_CANMX$PORTB 000000  
                  _TickCounter 0045                        _RXB0CON 000F60                        _RXB1CON 000F30  
                      _RXB0FUL 007B07                        _RXB1FUL 007987                        _TXB0CON 000F20  
                      _TXB1CON 000F10                        _TXB2CON 000F00                      ?_high_isr 0001  
      __end_of_ECANFiltersInit 0F6C               ?_ConfigureTimers 0001                        _LedDisp 0042  
                 _ConfigureCCP 10CE                        _KeybMsg 0039         __size_of_CANRxFifoInit 0042  
              _ECANSendMessage 06C0                        __Hparam 0000                        __Lparam 0000  
                    _CANRxFifo 0200                      _CANTxFifo 0100         __size_of_CANTxFifoInit 0042  
       PutCANRxFifo@PutMessage 0013                        __pcinit 1220                        __ramtop 0F00  
                      __ptext0 0126                        __ptext1 128A                        __ptext2 0F6C  
                      __ptext3 1284                        __ptext4 0B72                        __ptext5 0C4E  
                      __ptext6 06C0                        __ptext7 04E0                        __ptext8 0D2A  
                      __ptext9 1256                      _T0CONbits 000FD5                      _T2CONbits 000FCA  
                  ?_SystemTest 0001                      _T4CONbits 000F88              __CFG_MSSPMSK$MSK7 000000  
                      _low_isr 0018                     ??_high_isr 002B                 __pintcode_body 0DF0  
         end_of_initialization 1250                        int_func 0DF0              ECANSendMessage@id 0079  
            ECANSendMessage@pb 0082           __end_of_PutCANRxFifo 107E           __end_of_PutCANTxFifo 1000  
                      postdec0 000FED                        postdec2 000FDD        __size_of_ECANInitialize 00C6  
                      postinc0 000FEE                        postinc1 000FE6                        postinc2 000FDE  
  __end_of_ConfigureInterrupts 10CE                      _RXM0EXIDM 0077CB                  _CANRxFifoInit 115E  
                _CANTxFifoInit 111C    __end_of_ConfigureOscillator 1284        __end_of_ECANSendMessage 0898  
             ?_ECANFiltersInit 0001                  ?__CANIDToRegs 006E           __end_of__RegsToCANID 0A0C  
          __size_of_SystemTest 0004      GetCANRxFifo@LocalCANRXMsg 007E               main@TempCANRxMsg 00A2  
             main@TempCANTxMsg 00B0                 ?_CANRxFifoInit 0001            start_initialization 1220  
               ?_CANTxFifoInit 0001         PutCANTxFifo@PutMessage 006E                 ??__CANIDToRegs 0075  
        ECANReceiveMessage@ptr 0028             main@AutotestResult 00A1              __CANIDToRegs@type 0074  
   __end_of_ECANReceiveMessage 0B72            ECANFiltersInit@mask 0070                    __pbssCOMRAM 0039  
                __pcstackBANK0 0060               ?_ECANSendMessage 0079              __size_of_high_isr 0EAE  
        __size_of_PutCANRxFifo 007E          __size_of_PutCANTxFifo 0094                  ?_GetCANRxFifo 006E  
                ?_GetCANTxFifo 006E  __size_of_ECANSetOperationMode 0020                 _ECANInitialize 0D2A  
                    __pintcode 0008         __size_of_ConfigureGPIO 0040                ??_CANRxFifoInit 006E  
                  __pintcodelo 0018                   ??_SystemTest 006E                ??_CANTxFifoInit 006E  
                     ?_low_isr 0001                   _PutCANRxFifo 1000          __size_of__RegsToCANID 0174  
                 _PutCANTxFifo 0F6C                       _LATBbits 000F8A                       _LATCbits 000F8B  
               ??_GetCANRxFifo 007C                 ??_GetCANTxFifo 007C         __end_of_ECANInitialize 0DF0  
                     i2u132_41 0E6C                       i2u150_45 0954                       i2u135_45 0A34  
                     i2u135_47 0A36                       i2u144_41 102E                       i2u148_45 08E2  
                     i2u149_45 0902                       _PIR5bits 000F77               ECANSendMessage@i 0098  
             ECANSendMessage@j 0094                       _RCONbits 000FD0             __end_of_SystemTest 128E  
     __size_of_ConfigureTimers 0040                       _RXB0OVFL 007B8F                       _RXB1OVFL 007B8E  
                     _RXF0SIDH 000EE0                       _RXF0SIDL 000EE1                       _RXF1SIDH 000EE4  
                     _RXF1SIDL 000EE5                       _RXF2SIDH 000EE8                       _RXF2SIDL 000EE9  
                     _RXF3SIDH 000EEC                       _RXF3SIDL 000EED                       _RXF4SIDH 000EF0  
                     _RXF4SIDL 000EF1                       _RXF5SIDH 000EF4                       _RXF5SIDL 000EF5  
             ECANPoll@RXBODBEN 007B02                       _RXM0SIDH 000EF8                       _RXBODBEN 007B02  
                     _RXM0SIDL 000EF9                       _RXM1SIDH 000EFC                       _RXM1SIDL 000EFD  
      high_isr@CANRxNewMessage 0060           __end_of__CANIDToRegs 06C0                  ?_GetCanAdress 0001  
             __CFG_SOSCSEL$DIG 000000                   __RegsToCANID 0898                  _ConfigureGPIO 11E0  
              ?_ECANInitialize 0001                       __Hrparam 0000           ECANReceiveMessage@id 001C  
                     __Lrparam 0000               __CANIDToRegs@val 0070               __CANIDToRegs@ptr 006E  
           __CFG_BOREN$SBORDIS 000000                       _SoundMsg 00BE                 ??_GetCanAdress 006E  
             _SoundTimerTicked 0048   __size_of_ConfigureInterrupts 0050               __size_of_low_isr 010A  
                     __ptext10 0EB6                       __ptext11 11A0                       __ptext20 1000  
                     __ptext12 1276                       __ptext21 0A0C                       __ptext13 107E  
                     __ptext22 0898                       __ptext14 11E0                       __ptext15 10CE  
                     __ptext16 111C                       __ptext17 115E                 ?_ConfigureGPIO 0001  
                     _high_isr 0008                  __size_of_main 03BA   __size_of_ConfigureOscillator 000E  
     __size_of_ECANFiltersInit 00B6            ECANSendMessage@data 007D            ECANSendMessage@temp 0097  
    GetCANTxFifo@LocalCANTXMsg 007E                    _RXB0FILHIT0 007B00            __CFG_INTOSCSEL$HIGH 000000  
            ??_ConfigureTimers 006E           __end_of_GetCANRxFifo 0D2A                     _INTCONbits 000FF2  
         __end_of_GetCANTxFifo 0C4E            ECANReceiveMessage@i 0027             _ECANReceiveMessage 0A0C  
             ecanpoll@RXBODBEN 007B02                       intlevel1 0000                       intlevel2 0000  
          ?_ECANReceiveMessage 001C                  ?_ConfigureCCP 0001                    _TXB0CONbits 000F20  
      ECANSendMessage@msgFlags 0080                     _OSCCONbits 000FD3             ECANSendMessage@ptr 0099  
        __size_of__CANIDToRegs 01E0             __CFG_WDTPS$1048576 000000         ECANSendMessage@dataLen 007F  
         ??_ECANReceiveMessage 0024   __end_of_ECANSetOperationMode 1276                ??_ConfigureGPIO 006E  
                   _RXM1EXIDEN 0077EB         ECANSendMessage@tempPtr 0095                 ??_ConfigureCCP 006E  
          __CFG_BORPWR$ZPBORMV 000000           __end_of_GetCanAdress 128A                   __CANIDToRegs 04E0  
     __size_of_ECANSendMessage 01D8  
